ARM GAS  C:\Users\minhp\AppData\Local\Temp\ccNV8Nlu.s 			page 1


   1              		.cpu cortex-m4
   2              		.arch armv7e-m
   3              		.fpu fpv4-sp-d16
   4              		.eabi_attribute 27, 1
   5              		.eabi_attribute 28, 1
   6              		.eabi_attribute 20, 1
   7              		.eabi_attribute 21, 1
   8              		.eabi_attribute 23, 3
   9              		.eabi_attribute 24, 1
  10              		.eabi_attribute 25, 1
  11              		.eabi_attribute 26, 1
  12              		.eabi_attribute 30, 1
  13              		.eabi_attribute 34, 1
  14              		.eabi_attribute 18, 4
  15              		.file	"appTest_tmc8462a.c"
  16              		.text
  17              	.Ltext0:
  18              		.cfi_sections	.debug_frame
  19              		.section	.text.AppTest_TMC8462A_Init,"ax",%progbits
  20              		.align	1
  21              		.global	AppTest_TMC8462A_Init
  22              		.syntax unified
  23              		.thumb
  24              		.thumb_func
  26              	AppTest_TMC8462A_Init:
  27              	.LFB5:
  28              		.file 1 "Application/AppsTest/TMC_Test/appTest_tmc8462a.c"
   1:Application/AppsTest/TMC_Test/appTest_tmc8462a.c **** /**
   2:Application/AppsTest/TMC_Test/appTest_tmc8462a.c ****  * @file appTest_tmc8462a.c
   3:Application/AppsTest/TMC_Test/appTest_tmc8462a.c ****  *
   4:Application/AppsTest/TMC_Test/appTest_tmc8462a.c ****  * TODO: Comment
   5:Application/AppsTest/TMC_Test/appTest_tmc8462a.c ****  */
   6:Application/AppsTest/TMC_Test/appTest_tmc8462a.c **** 
   7:Application/AppsTest/TMC_Test/appTest_tmc8462a.c **** /*-------------------------------------------------------------------------------------------------
   8:Application/AppsTest/TMC_Test/appTest_tmc8462a.c ****  *                                                 INCLUDES
   9:Application/AppsTest/TMC_Test/appTest_tmc8462a.c ****  *-------------------------------------------------------------------------------------------------
  10:Application/AppsTest/TMC_Test/appTest_tmc8462a.c **** 
  11:Application/AppsTest/TMC_Test/appTest_tmc8462a.c **** #include "appTest_tmc8462a.h"
  12:Application/AppsTest/TMC_Test/appTest_tmc8462a.c **** #include "FreeRTOS.h"
  13:Application/AppsTest/TMC_Test/appTest_tmc8462a.c **** #include "timers.h"
  14:Application/AppsTest/TMC_Test/appTest_tmc8462a.c **** 
  15:Application/AppsTest/TMC_Test/appTest_tmc8462a.c **** /*-------------------------------------------------------------------------------------------------
  16:Application/AppsTest/TMC_Test/appTest_tmc8462a.c ****  *                                                 DEFINES
  17:Application/AppsTest/TMC_Test/appTest_tmc8462a.c ****  *-------------------------------------------------------------------------------------------------
  18:Application/AppsTest/TMC_Test/appTest_tmc8462a.c **** 
  19:Application/AppsTest/TMC_Test/appTest_tmc8462a.c **** 
  20:Application/AppsTest/TMC_Test/appTest_tmc8462a.c **** 
  21:Application/AppsTest/TMC_Test/appTest_tmc8462a.c **** /*-------------------------------------------------------------------------------------------------
  22:Application/AppsTest/TMC_Test/appTest_tmc8462a.c ****  *                                                VARIABLES
  23:Application/AppsTest/TMC_Test/appTest_tmc8462a.c ****  *-------------------------------------------------------------------------------------------------
  24:Application/AppsTest/TMC_Test/appTest_tmc8462a.c **** 
  25:Application/AppsTest/TMC_Test/appTest_tmc8462a.c **** tAppTest_tmc8462A tmcTest = {
  26:Application/AppsTest/TMC_Test/appTest_tmc8462a.c ****    .testCase = APPTEST_TMC8462A_NO_TEST,
  27:Application/AppsTest/TMC_Test/appTest_tmc8462a.c **** };
  28:Application/AppsTest/TMC_Test/appTest_tmc8462a.c **** 
  29:Application/AppsTest/TMC_Test/appTest_tmc8462a.c **** static ConfigurationTypeDef tmc8462_config_esc;
  30:Application/AppsTest/TMC_Test/appTest_tmc8462a.c **** static ConfigurationTypeDef tmc8462_config_mfc;
ARM GAS  C:\Users\minhp\AppData\Local\Temp\ccNV8Nlu.s 			page 2


  31:Application/AppsTest/TMC_Test/appTest_tmc8462a.c **** static TMC8462TypeDef tmc8462;
  32:Application/AppsTest/TMC_Test/appTest_tmc8462a.c **** 
  33:Application/AppsTest/TMC_Test/appTest_tmc8462a.c **** static uint8_t data_Tx[APPTEST_TMC8462_DATA_TX_SIZE] = {0, 1, 2, 3, 4, 5, 6, 7};
  34:Application/AppsTest/TMC_Test/appTest_tmc8462a.c **** static uint8_t data_Rx[APPTEST_TMC8462_DATA_RX_SIZE] = {0};
  35:Application/AppsTest/TMC_Test/appTest_tmc8462a.c **** 
  36:Application/AppsTest/TMC_Test/appTest_tmc8462a.c **** /*-------------------------------------------------------------------------------------------------
  37:Application/AppsTest/TMC_Test/appTest_tmc8462a.c ****  *                                            FUNCTION DEFINATIONS
  38:Application/AppsTest/TMC_Test/appTest_tmc8462a.c ****  *-------------------------------------------------------------------------------------------------
  39:Application/AppsTest/TMC_Test/appTest_tmc8462a.c **** 
  40:Application/AppsTest/TMC_Test/appTest_tmc8462a.c **** void AppTest_TMC8462A_Init (void)
  41:Application/AppsTest/TMC_Test/appTest_tmc8462a.c **** {
  29              		.loc 1 41 1 view -0
  30              		.cfi_startproc
  31              		@ args = 0, pretend = 0, frame = 0
  32              		@ frame_needed = 0, uses_anonymous_args = 0
  33 0000 08B5     		push	{r3, lr}
  34              	.LCFI0:
  35              		.cfi_def_cfa_offset 8
  36              		.cfi_offset 3, -8
  37              		.cfi_offset 14, -4
  42:Application/AppsTest/TMC_Test/appTest_tmc8462a.c ****   tmc8462_initConfig (&tmc8462, &tmc8462_config_esc, &tmc8462_config_mfc);
  38              		.loc 1 42 3 view .LVU1
  39 0002 034A     		ldr	r2, .L3
  40 0004 0349     		ldr	r1, .L3+4
  41 0006 0448     		ldr	r0, .L3+8
  42 0008 FFF7FEFF 		bl	tmc8462_initConfig
  43              	.LVL0:
  43:Application/AppsTest/TMC_Test/appTest_tmc8462a.c **** }
  44              		.loc 1 43 1 is_stmt 0 view .LVU2
  45 000c 08BD     		pop	{r3, pc}
  46              	.L4:
  47 000e 00BF     		.align	2
  48              	.L3:
  49 0010 00000000 		.word	.LANCHOR0
  50 0014 00000000 		.word	.LANCHOR1
  51 0018 00000000 		.word	.LANCHOR2
  52              		.cfi_endproc
  53              	.LFE5:
  55              		.section	.text.AppTest_TMC8462A_MainFunction,"ax",%progbits
  56              		.align	1
  57              		.global	AppTest_TMC8462A_MainFunction
  58              		.syntax unified
  59              		.thumb
  60              		.thumb_func
  62              	AppTest_TMC8462A_MainFunction:
  63              	.LFB6:
  44:Application/AppsTest/TMC_Test/appTest_tmc8462a.c **** 
  45:Application/AppsTest/TMC_Test/appTest_tmc8462a.c **** void AppTest_TMC8462A_MainFunction (void)
  46:Application/AppsTest/TMC_Test/appTest_tmc8462a.c **** {
  64              		.loc 1 46 1 is_stmt 1 view -0
  65              		.cfi_startproc
  66              		@ args = 0, pretend = 0, frame = 0
  67              		@ frame_needed = 0, uses_anonymous_args = 0
  47:Application/AppsTest/TMC_Test/appTest_tmc8462a.c ****    switch (tmcTest.testCase)
  68              		.loc 1 47 4 view .LVU4
  69              		.loc 1 47 19 is_stmt 0 view .LVU5
  70 0000 0C4B     		ldr	r3, .L12
ARM GAS  C:\Users\minhp\AppData\Local\Temp\ccNV8Nlu.s 			page 3


  71 0002 1B78     		ldrb	r3, [r3]	@ zero_extendqisi2
  72              		.loc 1 47 4 view .LVU6
  73 0004 012B     		cmp	r3, #1
  74 0006 00D0     		beq	.L11
  75 0008 7047     		bx	lr
  76              	.L11:
  46:Application/AppsTest/TMC_Test/appTest_tmc8462a.c ****    switch (tmcTest.testCase)
  77              		.loc 1 46 1 view .LVU7
  78 000a 10B5     		push	{r4, lr}
  79              	.LCFI1:
  80              		.cfi_def_cfa_offset 8
  81              		.cfi_offset 4, -8
  82              		.cfi_offset 14, -4
  48:Application/AppsTest/TMC_Test/appTest_tmc8462a.c ****    {
  49:Application/AppsTest/TMC_Test/appTest_tmc8462a.c ****    case APPTEST_TMC8462A_NO_TEST:
  50:Application/AppsTest/TMC_Test/appTest_tmc8462a.c ****       /** Do nothing here. */
  51:Application/AppsTest/TMC_Test/appTest_tmc8462a.c ****       break;
  52:Application/AppsTest/TMC_Test/appTest_tmc8462a.c ****    
  53:Application/AppsTest/TMC_Test/appTest_tmc8462a.c ****    case APPTEST_TMC8462A_SELFTEST_SPIDMA:
  54:Application/AppsTest/TMC_Test/appTest_tmc8462a.c ****       tmc8462_esc_write_data (&tmc8462, data_Tx, TMC8462_ESC_PROCESS_DATA_RAM, APPTEST_TMC8462_DATA
  83              		.loc 1 54 7 is_stmt 1 view .LVU8
  84 000c 0A4C     		ldr	r4, .L12+4
  85 000e 0823     		movs	r3, #8
  86 0010 4FF48052 		mov	r2, #4096
  87 0014 0949     		ldr	r1, .L12+8
  88 0016 2046     		mov	r0, r4
  89 0018 FFF7FEFF 		bl	tmc8462_esc_write_data
  90              	.LVL1:
  55:Application/AppsTest/TMC_Test/appTest_tmc8462a.c **** 
  56:Application/AppsTest/TMC_Test/appTest_tmc8462a.c ****       vTaskDelay (500/portTICK_PERIOD_MS);
  91              		.loc 1 56 7 view .LVU9
  92 001c 4FF4FA70 		mov	r0, #500
  93 0020 FFF7FEFF 		bl	vTaskDelay
  94              	.LVL2:
  57:Application/AppsTest/TMC_Test/appTest_tmc8462a.c **** 
  58:Application/AppsTest/TMC_Test/appTest_tmc8462a.c ****       tmc8462_esc_read_data (&tmc8462, data_Rx, TMC8462_ESC_PROCESS_DATA_RAM, APPTEST_TMC8462_DATA_
  95              		.loc 1 58 7 view .LVU10
  96 0024 0823     		movs	r3, #8
  97 0026 4FF48052 		mov	r2, #4096
  98 002a 0549     		ldr	r1, .L12+12
  99 002c 2046     		mov	r0, r4
 100 002e FFF7FEFF 		bl	tmc8462_esc_read_data
 101              	.LVL3:
  59:Application/AppsTest/TMC_Test/appTest_tmc8462a.c ****       break;
 102              		.loc 1 59 7 view .LVU11
  60:Application/AppsTest/TMC_Test/appTest_tmc8462a.c **** 
  61:Application/AppsTest/TMC_Test/appTest_tmc8462a.c ****    case APPTEST_TMC8462A_GETDATA_FROM_SLAVE:
  62:Application/AppsTest/TMC_Test/appTest_tmc8462a.c **** 
  63:Application/AppsTest/TMC_Test/appTest_tmc8462a.c ****       break;
  64:Application/AppsTest/TMC_Test/appTest_tmc8462a.c ****    default:
  65:Application/AppsTest/TMC_Test/appTest_tmc8462a.c ****       break;
  66:Application/AppsTest/TMC_Test/appTest_tmc8462a.c ****    }
  67:Application/AppsTest/TMC_Test/appTest_tmc8462a.c **** }
 103              		.loc 1 67 1 is_stmt 0 view .LVU12
 104 0032 10BD     		pop	{r4, pc}
 105              	.L13:
 106              		.align	2
ARM GAS  C:\Users\minhp\AppData\Local\Temp\ccNV8Nlu.s 			page 4


 107              	.L12:
 108 0034 00000000 		.word	.LANCHOR3
 109 0038 00000000 		.word	.LANCHOR2
 110 003c 00000000 		.word	.LANCHOR4
 111 0040 00000000 		.word	.LANCHOR5
 112              		.cfi_endproc
 113              	.LFE6:
 115              		.global	tmcTest
 116              		.section	.bss.data_Rx,"aw",%nobits
 117              		.align	2
 118              		.set	.LANCHOR5,. + 0
 121              	data_Rx:
 122 0000 00000000 		.space	10
 122      00000000 
 122      0000
 123              		.section	.bss.tmc8462,"aw",%nobits
 124              		.align	2
 125              		.set	.LANCHOR2,. + 0
 128              	tmc8462:
 129 0000 00000000 		.space	8
 129      00000000 
 130              		.section	.bss.tmc8462_config_esc,"aw",%nobits
 131              		.align	2
 132              		.set	.LANCHOR1,. + 0
 135              	tmc8462_config_esc:
 136 0000 00000000 		.space	532
 136      00000000 
 136      00000000 
 136      00000000 
 136      00000000 
 137              		.section	.bss.tmc8462_config_mfc,"aw",%nobits
 138              		.align	2
 139              		.set	.LANCHOR0,. + 0
 142              	tmc8462_config_mfc:
 143 0000 00000000 		.space	532
 143      00000000 
 143      00000000 
 143      00000000 
 143      00000000 
 144              		.section	.bss.tmcTest,"aw",%nobits
 145              		.align	2
 146              		.set	.LANCHOR3,. + 0
 149              	tmcTest:
 150 0000 00000000 		.space	4
 151              		.section	.data.data_Tx,"aw"
 152              		.align	2
 153              		.set	.LANCHOR4,. + 0
 156              	data_Tx:
 157 0000 00010203 		.ascii	"\000\001\002\003\004\005\006\007"
 157      04050607 
 158              		.text
 159              	.Letext0:
 160              		.file 2 "c:\\program files (x86)\\gnu arm embedded toolchain\\10 2021.10\\arm-none-eabi\\include\\
 161              		.file 3 "c:\\program files (x86)\\gnu arm embedded toolchain\\10 2021.10\\arm-none-eabi\\include\\
 162              		.file 4 "Application/Drivers/tmc/helpers/Config.h"
 163              		.file 5 "Application/Drivers/tmc/ic/TMC8462/TMC8462.h"
 164              		.file 6 "Application/AppsTest/TMC_Test/appTest_tmc8462a.h"
ARM GAS  C:\Users\minhp\AppData\Local\Temp\ccNV8Nlu.s 			page 5


 165              		.file 7 "Middlewares/Third_Party/FreeRTOS/Source/portable/GCC/ARM_CM4F/portmacro.h"
 166              		.file 8 "Middlewares/Third_Party/FreeRTOS/Source/include/task.h"
ARM GAS  C:\Users\minhp\AppData\Local\Temp\ccNV8Nlu.s 			page 6

