ARM GAS  C:\Users\minhp\AppData\Local\Temp\cceyqrQm.s 			page 1


   1              		.cpu cortex-m4
   2              		.arch armv7e-m
   3              		.fpu fpv4-sp-d16
   4              		.eabi_attribute 27, 1
   5              		.eabi_attribute 28, 1
   6              		.eabi_attribute 20, 1
   7              		.eabi_attribute 21, 1
   8              		.eabi_attribute 23, 3
   9              		.eabi_attribute 24, 1
  10              		.eabi_attribute 25, 1
  11              		.eabi_attribute 26, 1
  12              		.eabi_attribute 30, 1
  13              		.eabi_attribute 34, 1
  14              		.eabi_attribute 18, 4
  15              		.file	"Functions.c"
  16              		.text
  17              	.Ltext0:
  18              		.cfi_sections	.debug_frame
  19              		.section	.text.tmc_limitInt,"ax",%progbits
  20              		.align	1
  21              		.global	tmc_limitInt
  22              		.syntax unified
  23              		.thumb
  24              		.thumb_func
  26              	tmc_limitInt:
  27              	.LVL0:
  28              	.LFB0:
  29              		.file 1 "Application/Drivers/tmc/helpers/Functions.c"
   1:Application/Drivers/tmc/helpers/Functions.c **** /*
   2:Application/Drivers/tmc/helpers/Functions.c ****  * Functions.c
   3:Application/Drivers/tmc/helpers/Functions.c ****  *
   4:Application/Drivers/tmc/helpers/Functions.c ****  *  Created on: 23.07.2018
   5:Application/Drivers/tmc/helpers/Functions.c ****  *      Author: ed
   6:Application/Drivers/tmc/helpers/Functions.c ****  */
   7:Application/Drivers/tmc/helpers/Functions.c **** #include "Functions.h"
   8:Application/Drivers/tmc/helpers/Functions.c **** 
   9:Application/Drivers/tmc/helpers/Functions.c **** int32_t tmc_limitInt(int32_t value, int32_t min, int32_t max)
  10:Application/Drivers/tmc/helpers/Functions.c **** {
  30              		.loc 1 10 1 view -0
  31              		.cfi_startproc
  32              		@ args = 0, pretend = 0, frame = 0
  33              		@ frame_needed = 0, uses_anonymous_args = 0
  34              		@ link register save eliminated.
  11:Application/Drivers/tmc/helpers/Functions.c **** 	if (value > max)
  35              		.loc 1 11 2 view .LVU1
  36              		.loc 1 11 5 is_stmt 0 view .LVU2
  37 0000 9042     		cmp	r0, r2
  38 0002 03DC     		bgt	.L3
  12:Application/Drivers/tmc/helpers/Functions.c **** 		return max;
  13:Application/Drivers/tmc/helpers/Functions.c **** 	else if (value < min)
  39              		.loc 1 13 7 is_stmt 1 view .LVU3
  40              		.loc 1 13 10 is_stmt 0 view .LVU4
  41 0004 8842     		cmp	r0, r1
  42 0006 02DA     		bge	.L1
  14:Application/Drivers/tmc/helpers/Functions.c **** 		return min;
  43              		.loc 1 14 10 view .LVU5
  44 0008 0846     		mov	r0, r1
ARM GAS  C:\Users\minhp\AppData\Local\Temp\cceyqrQm.s 			page 2


  45              	.LVL1:
  46              		.loc 1 14 10 view .LVU6
  47 000a 7047     		bx	lr
  48              	.LVL2:
  49              	.L3:
  12:Application/Drivers/tmc/helpers/Functions.c **** 		return max;
  50              		.loc 1 12 10 view .LVU7
  51 000c 1046     		mov	r0, r2
  52              	.LVL3:
  53              	.L1:
  15:Application/Drivers/tmc/helpers/Functions.c **** 	else
  16:Application/Drivers/tmc/helpers/Functions.c **** 		return value;
  17:Application/Drivers/tmc/helpers/Functions.c **** }
  54              		.loc 1 17 1 view .LVU8
  55 000e 7047     		bx	lr
  56              		.cfi_endproc
  57              	.LFE0:
  59              		.section	.text.tmc_limitS64,"ax",%progbits
  60              		.align	1
  61              		.global	tmc_limitS64
  62              		.syntax unified
  63              		.thumb
  64              		.thumb_func
  66              	tmc_limitS64:
  67              	.LVL4:
  68              	.LFB1:
  18:Application/Drivers/tmc/helpers/Functions.c **** 
  19:Application/Drivers/tmc/helpers/Functions.c **** int64_t tmc_limitS64(int64_t value, int64_t min, int64_t max)
  20:Application/Drivers/tmc/helpers/Functions.c **** {
  69              		.loc 1 20 1 is_stmt 1 view -0
  70              		.cfi_startproc
  71              		@ args = 8, pretend = 0, frame = 0
  72              		@ frame_needed = 0, uses_anonymous_args = 0
  73              		@ link register save eliminated.
  74              		.loc 1 20 1 is_stmt 0 view .LVU10
  75 0000 30B4     		push	{r4, r5}
  76              	.LCFI0:
  77              		.cfi_def_cfa_offset 8
  78              		.cfi_offset 4, -8
  79              		.cfi_offset 5, -4
  80 0002 029D     		ldr	r5, [sp, #8]
  81 0004 039C     		ldr	r4, [sp, #12]
  21:Application/Drivers/tmc/helpers/Functions.c **** 	if (value > max)
  82              		.loc 1 21 2 is_stmt 1 view .LVU11
  83              		.loc 1 21 5 is_stmt 0 view .LVU12
  84 0006 8542     		cmp	r5, r0
  85 0008 74EB010C 		sbcs	ip, r4, r1
  86 000c 06DB     		blt	.L7
  22:Application/Drivers/tmc/helpers/Functions.c **** 		return max;
  23:Application/Drivers/tmc/helpers/Functions.c **** 	else if (value < min)
  87              		.loc 1 23 7 is_stmt 1 view .LVU13
  88              		.loc 1 23 10 is_stmt 0 view .LVU14
  89 000e 9042     		cmp	r0, r2
  90 0010 71EB0304 		sbcs	r4, r1, r3
  91 0014 04DA     		bge	.L5
  24:Application/Drivers/tmc/helpers/Functions.c **** 		return min;
  92              		.loc 1 24 10 view .LVU15
ARM GAS  C:\Users\minhp\AppData\Local\Temp\cceyqrQm.s 			page 3


  93 0016 1046     		mov	r0, r2
  94              	.LVL5:
  95              		.loc 1 24 10 view .LVU16
  96 0018 1946     		mov	r1, r3
  97 001a 01E0     		b	.L5
  98              	.LVL6:
  99              	.L7:
  22:Application/Drivers/tmc/helpers/Functions.c **** 		return max;
 100              		.loc 1 22 10 view .LVU17
 101 001c 2846     		mov	r0, r5
 102              	.LVL7:
  22:Application/Drivers/tmc/helpers/Functions.c **** 		return max;
 103              		.loc 1 22 10 view .LVU18
 104 001e 2146     		mov	r1, r4
 105              	.L5:
  25:Application/Drivers/tmc/helpers/Functions.c **** 	else
  26:Application/Drivers/tmc/helpers/Functions.c **** 		return value;
  27:Application/Drivers/tmc/helpers/Functions.c **** }
 106              		.loc 1 27 1 view .LVU19
 107 0020 30BC     		pop	{r4, r5}
 108              	.LCFI1:
 109              		.cfi_restore 5
 110              		.cfi_restore 4
 111              		.cfi_def_cfa_offset 0
 112              	.LVL8:
 113              		.loc 1 27 1 view .LVU20
 114 0022 7047     		bx	lr
 115              		.cfi_endproc
 116              	.LFE1:
 118              		.section	.text.tmc_sqrti,"ax",%progbits
 119              		.align	1
 120              		.global	tmc_sqrti
 121              		.syntax unified
 122              		.thumb
 123              		.thumb_func
 125              	tmc_sqrti:
 126              	.LVL9:
 127              	.LFB2:
  28:Application/Drivers/tmc/helpers/Functions.c **** 
  29:Application/Drivers/tmc/helpers/Functions.c **** /* lookup table for square root function */
  30:Application/Drivers/tmc/helpers/Functions.c **** static const unsigned char sqrttable[256] =
  31:Application/Drivers/tmc/helpers/Functions.c **** {
  32:Application/Drivers/tmc/helpers/Functions.c **** 	0,   16,  22,  27,  32,  35,  39,  42,  45,  48,  50,  53,  55,  57,  59,  61,
  33:Application/Drivers/tmc/helpers/Functions.c **** 	64,  65,  67,  69,  71,  73,  75,  76,  78,  80,  81,  83,  84,  86,  87,  89,
  34:Application/Drivers/tmc/helpers/Functions.c **** 	90,  91,  93,  94,  96,  97,  98,  99,  101, 102, 103, 104, 106, 107, 108, 109,
  35:Application/Drivers/tmc/helpers/Functions.c **** 	110, 112, 113, 114, 115, 116, 117, 118, 119, 120, 121, 122, 123, 124, 125, 126,
  36:Application/Drivers/tmc/helpers/Functions.c **** 	128, 128, 129, 130, 131, 132, 133, 134, 135, 136, 137, 138, 139, 140, 141, 142,
  37:Application/Drivers/tmc/helpers/Functions.c **** 	143, 144, 144, 145, 146, 147, 148, 149, 150, 150, 151, 152, 153, 154, 155, 155,
  38:Application/Drivers/tmc/helpers/Functions.c **** 	156, 157, 158, 159, 160, 160, 161, 162, 163, 163, 164, 165, 166, 167, 167, 168,
  39:Application/Drivers/tmc/helpers/Functions.c **** 	169, 170, 170, 171, 172, 173, 173, 174, 175, 176, 176, 177, 178, 178, 179, 180,
  40:Application/Drivers/tmc/helpers/Functions.c **** 	181, 181, 182, 183, 183, 184, 185, 185, 186, 187, 187, 188, 189, 189, 190, 191,
  41:Application/Drivers/tmc/helpers/Functions.c **** 	192, 192, 193, 193, 194, 195, 195, 196, 197, 197, 198, 199, 199, 200, 201, 201,
  42:Application/Drivers/tmc/helpers/Functions.c **** 	202, 203, 203, 204, 204, 205, 206, 206, 207, 208, 208, 209, 209, 210, 211, 211,
  43:Application/Drivers/tmc/helpers/Functions.c **** 	212, 212, 213, 214, 214, 215, 215, 216, 217, 217, 218, 218, 219, 219, 220, 221,
  44:Application/Drivers/tmc/helpers/Functions.c **** 	221, 222, 222, 223, 224, 224, 225, 225, 226, 226, 227, 227, 228, 229, 229, 230,
  45:Application/Drivers/tmc/helpers/Functions.c **** 	230, 231, 231, 232, 232, 233, 234, 234, 235, 235, 236, 236, 237, 237, 238, 238,
  46:Application/Drivers/tmc/helpers/Functions.c **** 	239, 240, 240, 241, 241, 242, 242, 243, 243, 244, 244, 245, 245, 246, 246, 247,
ARM GAS  C:\Users\minhp\AppData\Local\Temp\cceyqrQm.s 			page 4


  47:Application/Drivers/tmc/helpers/Functions.c **** 	247, 248, 248, 249, 249, 250, 250, 251, 251, 252, 252, 253, 253, 254, 254, 255
  48:Application/Drivers/tmc/helpers/Functions.c **** };
  49:Application/Drivers/tmc/helpers/Functions.c **** 
  50:Application/Drivers/tmc/helpers/Functions.c **** int32_t tmc_sqrti(int32_t x)
  51:Application/Drivers/tmc/helpers/Functions.c **** {
 128              		.loc 1 51 1 is_stmt 1 view -0
 129              		.cfi_startproc
 130              		@ args = 0, pretend = 0, frame = 0
 131              		@ frame_needed = 0, uses_anonymous_args = 0
 132              		@ link register save eliminated.
  52:Application/Drivers/tmc/helpers/Functions.c **** 	int32_t xn;
 133              		.loc 1 52 2 view .LVU22
  53:Application/Drivers/tmc/helpers/Functions.c **** 
  54:Application/Drivers/tmc/helpers/Functions.c **** 	// Negative parameter?
  55:Application/Drivers/tmc/helpers/Functions.c **** 	if (x < 0)
 134              		.loc 1 55 2 view .LVU23
 135              		.loc 1 55 5 is_stmt 0 view .LVU24
 136 0000 031E     		subs	r3, r0, #0
 137 0002 79DB     		blt	.L27
  56:Application/Drivers/tmc/helpers/Functions.c **** 		return -1;
  57:Application/Drivers/tmc/helpers/Functions.c **** 
  58:Application/Drivers/tmc/helpers/Functions.c **** 	if (x < 0x0100)
 138              		.loc 1 58 2 is_stmt 1 view .LVU25
 139              		.loc 1 58 5 is_stmt 0 view .LVU26
 140 0004 FF2B     		cmp	r3, #255
 141 0006 1FDD     		ble	.L28
  59:Application/Drivers/tmc/helpers/Functions.c **** 		return (int) sqrttable[x] >> 4;
  60:Application/Drivers/tmc/helpers/Functions.c **** 
  61:Application/Drivers/tmc/helpers/Functions.c **** 	if (x >= 0x00010000)
 142              		.loc 1 61 2 is_stmt 1 view .LVU27
 143              		.loc 1 61 5 is_stmt 0 view .LVU28
 144 0008 B3F5803F 		cmp	r3, #65536
 145 000c 54DB     		blt	.L13
  62:Application/Drivers/tmc/helpers/Functions.c **** 	{
  63:Application/Drivers/tmc/helpers/Functions.c **** 		if (x >= 0x01000000)
 146              		.loc 1 63 3 is_stmt 1 view .LVU29
 147              		.loc 1 63 6 is_stmt 0 view .LVU30
 148 000e B3F1807F 		cmp	r3, #16777216
 149 0012 2FDB     		blt	.L14
  64:Application/Drivers/tmc/helpers/Functions.c **** 		{
  65:Application/Drivers/tmc/helpers/Functions.c **** 			if (x >= 0x10000000)
 150              		.loc 1 65 4 is_stmt 1 view .LVU31
 151              		.loc 1 65 7 is_stmt 0 view .LVU32
 152 0014 B3F1805F 		cmp	r3, #268435456
 153 0018 1FDB     		blt	.L15
  66:Application/Drivers/tmc/helpers/Functions.c **** 			{
  67:Application/Drivers/tmc/helpers/Functions.c **** 				if (x >= 0x40000000)
 154              		.loc 1 67 5 is_stmt 1 view .LVU33
 155              		.loc 1 67 8 is_stmt 0 view .LVU34
 156 001a B3F1804F 		cmp	r3, #1073741824
 157 001e 17DB     		blt	.L16
  68:Application/Drivers/tmc/helpers/Functions.c **** 				{
  69:Application/Drivers/tmc/helpers/Functions.c **** 					// 0x40000000 <= x < 0x7FFFFFFF
  70:Application/Drivers/tmc/helpers/Functions.c **** 					xn = (int) sqrttable[x >> 24] << 8;
 158              		.loc 1 70 6 is_stmt 1 view .LVU35
 159              		.loc 1 70 29 is_stmt 0 view .LVU36
 160 0020 1A16     		asrs	r2, r3, #24
ARM GAS  C:\Users\minhp\AppData\Local\Temp\cceyqrQm.s 			page 5


 161              		.loc 1 70 26 view .LVU37
 162 0022 3749     		ldr	r1, .L29
 163 0024 895C     		ldrb	r1, [r1, r2]	@ zero_extendqisi2
 164              		.loc 1 70 9 view .LVU38
 165 0026 0902     		lsls	r1, r1, #8
 166              	.LVL10:
 167              	.L17:
  71:Application/Drivers/tmc/helpers/Functions.c **** 				}
  72:Application/Drivers/tmc/helpers/Functions.c **** 				else
  73:Application/Drivers/tmc/helpers/Functions.c **** 				{
  74:Application/Drivers/tmc/helpers/Functions.c **** 					// 0x10000000 <= x < 0x40000000
  75:Application/Drivers/tmc/helpers/Functions.c **** 					xn = (int) sqrttable[x >> 22] << 7;
  76:Application/Drivers/tmc/helpers/Functions.c **** 				}
  77:Application/Drivers/tmc/helpers/Functions.c **** 			}
  78:Application/Drivers/tmc/helpers/Functions.c **** 			else
  79:Application/Drivers/tmc/helpers/Functions.c **** 			{
  80:Application/Drivers/tmc/helpers/Functions.c **** 				if (x >= 0x04000000)
  81:Application/Drivers/tmc/helpers/Functions.c **** 				{
  82:Application/Drivers/tmc/helpers/Functions.c **** 					// 0x04000000 <= x < 0x10000000
  83:Application/Drivers/tmc/helpers/Functions.c **** 					xn = (int) sqrttable[x >> 20] << 6;
  84:Application/Drivers/tmc/helpers/Functions.c **** 				}
  85:Application/Drivers/tmc/helpers/Functions.c **** 				else
  86:Application/Drivers/tmc/helpers/Functions.c **** 				{
  87:Application/Drivers/tmc/helpers/Functions.c **** 					// 0x01000000 <= x < 0x04000000
  88:Application/Drivers/tmc/helpers/Functions.c **** 					xn = (int) sqrttable[x >> 18] << 5;
  89:Application/Drivers/tmc/helpers/Functions.c **** 				}
  90:Application/Drivers/tmc/helpers/Functions.c **** 			}
  91:Application/Drivers/tmc/helpers/Functions.c **** 
  92:Application/Drivers/tmc/helpers/Functions.c **** 			// Two steps of the babylonian method
  93:Application/Drivers/tmc/helpers/Functions.c **** 			xn = (xn + 1 + (x / xn)) >> 1;
 168              		.loc 1 93 4 is_stmt 1 view .LVU39
 169              		.loc 1 93 13 is_stmt 0 view .LVU40
 170 0028 4A1C     		adds	r2, r1, #1
 171              		.loc 1 93 22 view .LVU41
 172 002a 93FBF1F1 		sdiv	r1, r3, r1
 173              	.LVL11:
 174              		.loc 1 93 17 view .LVU42
 175 002e 0A44     		add	r2, r2, r1
 176              	.LVL12:
 177              		.loc 1 93 7 view .LVU43
 178 0030 5210     		asrs	r2, r2, #1
 179              	.LVL13:
  94:Application/Drivers/tmc/helpers/Functions.c **** 			xn = (xn + 1 + (x / xn)) >> 1;
 180              		.loc 1 94 4 is_stmt 1 view .LVU44
 181              		.loc 1 94 13 is_stmt 0 view .LVU45
 182 0032 501C     		adds	r0, r2, #1
 183              	.LVL14:
 184              		.loc 1 94 22 view .LVU46
 185 0034 93FBF2F2 		sdiv	r2, r3, r2
 186              	.LVL15:
 187              		.loc 1 94 17 view .LVU47
 188 0038 1044     		add	r0, r0, r2
 189              	.LVL16:
 190              		.loc 1 94 7 view .LVU48
 191 003a 4010     		asrs	r0, r0, #1
 192              	.LVL17:
 193              	.L19:
ARM GAS  C:\Users\minhp\AppData\Local\Temp\cceyqrQm.s 			page 6


  95:Application/Drivers/tmc/helpers/Functions.c **** 		}
  96:Application/Drivers/tmc/helpers/Functions.c **** 		else
  97:Application/Drivers/tmc/helpers/Functions.c **** 		{
  98:Application/Drivers/tmc/helpers/Functions.c **** 			if (x >= 0x00100000)
  99:Application/Drivers/tmc/helpers/Functions.c **** 			{
 100:Application/Drivers/tmc/helpers/Functions.c **** 				if (x >= 0x00400000)
 101:Application/Drivers/tmc/helpers/Functions.c **** 				{
 102:Application/Drivers/tmc/helpers/Functions.c **** 					// 0x00400000 <= x < 0x01000000
 103:Application/Drivers/tmc/helpers/Functions.c **** 					xn = (int) sqrttable[x >> 16] << 4;
 104:Application/Drivers/tmc/helpers/Functions.c **** 				}
 105:Application/Drivers/tmc/helpers/Functions.c **** 				else
 106:Application/Drivers/tmc/helpers/Functions.c **** 				{
 107:Application/Drivers/tmc/helpers/Functions.c **** 					// 0x00100000 <= x < 0x00400000
 108:Application/Drivers/tmc/helpers/Functions.c **** 					xn = (int) sqrttable[x >> 14] << 3;
 109:Application/Drivers/tmc/helpers/Functions.c **** 				}
 110:Application/Drivers/tmc/helpers/Functions.c **** 			}
 111:Application/Drivers/tmc/helpers/Functions.c **** 			else
 112:Application/Drivers/tmc/helpers/Functions.c **** 			{
 113:Application/Drivers/tmc/helpers/Functions.c **** 				if (x >= 0x00040000)
 114:Application/Drivers/tmc/helpers/Functions.c **** 				{
 115:Application/Drivers/tmc/helpers/Functions.c **** 					// 0x00040000 <= x < 0x00100000
 116:Application/Drivers/tmc/helpers/Functions.c **** 					xn = (int) sqrttable[x >> 12] << 2;
 117:Application/Drivers/tmc/helpers/Functions.c **** 				}
 118:Application/Drivers/tmc/helpers/Functions.c **** 				else
 119:Application/Drivers/tmc/helpers/Functions.c **** 				{
 120:Application/Drivers/tmc/helpers/Functions.c **** 					// 0x00010000 <= x < 0x00040000
 121:Application/Drivers/tmc/helpers/Functions.c **** 					xn = (int) sqrttable[x >> 10] << 1;
 122:Application/Drivers/tmc/helpers/Functions.c **** 				}
 123:Application/Drivers/tmc/helpers/Functions.c **** 			}
 124:Application/Drivers/tmc/helpers/Functions.c **** 
 125:Application/Drivers/tmc/helpers/Functions.c **** 			// One step of the babylonian method
 126:Application/Drivers/tmc/helpers/Functions.c **** 			xn = (xn + 1 + (x / xn)) >> 1;
 127:Application/Drivers/tmc/helpers/Functions.c **** 		}
 128:Application/Drivers/tmc/helpers/Functions.c **** 	}
 129:Application/Drivers/tmc/helpers/Functions.c **** 	else
 130:Application/Drivers/tmc/helpers/Functions.c **** 	{
 131:Application/Drivers/tmc/helpers/Functions.c **** 		if (x >= 0x1000)
 132:Application/Drivers/tmc/helpers/Functions.c **** 		{
 133:Application/Drivers/tmc/helpers/Functions.c **** 			if (x >= 0x4000)
 134:Application/Drivers/tmc/helpers/Functions.c **** 			{
 135:Application/Drivers/tmc/helpers/Functions.c **** 				// 0x4000 <= x < 0x00010000
 136:Application/Drivers/tmc/helpers/Functions.c **** 				xn = (int) (sqrttable[x >> 8] ) + 1;
 137:Application/Drivers/tmc/helpers/Functions.c **** 			}
 138:Application/Drivers/tmc/helpers/Functions.c **** 			else
 139:Application/Drivers/tmc/helpers/Functions.c **** 			{
 140:Application/Drivers/tmc/helpers/Functions.c **** 				// 0x1000 <= x < 0x4000
 141:Application/Drivers/tmc/helpers/Functions.c **** 				xn = (int) (sqrttable[x >> 6] >> 1) + 1;
 142:Application/Drivers/tmc/helpers/Functions.c **** 			}
 143:Application/Drivers/tmc/helpers/Functions.c **** 		}
 144:Application/Drivers/tmc/helpers/Functions.c **** 		else
 145:Application/Drivers/tmc/helpers/Functions.c **** 		{
 146:Application/Drivers/tmc/helpers/Functions.c **** 			if (x >= 0x0400)
 147:Application/Drivers/tmc/helpers/Functions.c **** 			{
 148:Application/Drivers/tmc/helpers/Functions.c **** 				// 0x0400 <= x < 0x1000
 149:Application/Drivers/tmc/helpers/Functions.c **** 				xn = (int) (sqrttable[x >> 4] >> 2) + 1;
 150:Application/Drivers/tmc/helpers/Functions.c **** 			}
 151:Application/Drivers/tmc/helpers/Functions.c **** 			else
ARM GAS  C:\Users\minhp\AppData\Local\Temp\cceyqrQm.s 			page 7


 152:Application/Drivers/tmc/helpers/Functions.c **** 			{
 153:Application/Drivers/tmc/helpers/Functions.c **** 				// 0x0100 <= x < 0x0400
 154:Application/Drivers/tmc/helpers/Functions.c **** 				xn = (int) (sqrttable[x >> 2] >> 3) + 1;
 155:Application/Drivers/tmc/helpers/Functions.c **** 			}
 156:Application/Drivers/tmc/helpers/Functions.c **** 		}
 157:Application/Drivers/tmc/helpers/Functions.c **** 	}
 158:Application/Drivers/tmc/helpers/Functions.c **** 
 159:Application/Drivers/tmc/helpers/Functions.c **** 	// Make sure that our result is floored
 160:Application/Drivers/tmc/helpers/Functions.c **** 	if ((xn * xn) > x)
 194              		.loc 1 160 2 is_stmt 1 view .LVU49
 195              		.loc 1 160 10 is_stmt 0 view .LVU50
 196 003c 00FB00F2 		mul	r2, r0, r0
 197              		.loc 1 160 5 view .LVU51
 198 0040 9A42     		cmp	r2, r3
 199 0042 5BDD     		ble	.L10
 161:Application/Drivers/tmc/helpers/Functions.c **** 		xn--;
 200              		.loc 1 161 3 is_stmt 1 view .LVU52
 201              		.loc 1 161 5 is_stmt 0 view .LVU53
 202 0044 0138     		subs	r0, r0, #1
 203              	.LVL18:
 204              		.loc 1 161 5 view .LVU54
 205 0046 7047     		bx	lr
 206              	.LVL19:
 207              	.L28:
  59:Application/Drivers/tmc/helpers/Functions.c **** 
 208              		.loc 1 59 3 is_stmt 1 view .LVU55
  59:Application/Drivers/tmc/helpers/Functions.c **** 
 209              		.loc 1 59 25 is_stmt 0 view .LVU56
 210 0048 2D4A     		ldr	r2, .L29
 211 004a D05C     		ldrb	r0, [r2, r3]	@ zero_extendqisi2
 212              	.LVL20:
  59:Application/Drivers/tmc/helpers/Functions.c **** 
 213              		.loc 1 59 29 view .LVU57
 214 004c 0009     		lsrs	r0, r0, #4
 215 004e 7047     		bx	lr
 216              	.LVL21:
 217              	.L16:
  75:Application/Drivers/tmc/helpers/Functions.c **** 				}
 218              		.loc 1 75 6 is_stmt 1 view .LVU58
  75:Application/Drivers/tmc/helpers/Functions.c **** 				}
 219              		.loc 1 75 29 is_stmt 0 view .LVU59
 220 0050 9A15     		asrs	r2, r3, #22
  75:Application/Drivers/tmc/helpers/Functions.c **** 				}
 221              		.loc 1 75 26 view .LVU60
 222 0052 2B49     		ldr	r1, .L29
 223 0054 895C     		ldrb	r1, [r1, r2]	@ zero_extendqisi2
  75:Application/Drivers/tmc/helpers/Functions.c **** 				}
 224              		.loc 1 75 9 view .LVU61
 225 0056 C901     		lsls	r1, r1, #7
 226              	.LVL22:
  75:Application/Drivers/tmc/helpers/Functions.c **** 				}
 227              		.loc 1 75 9 view .LVU62
 228 0058 E6E7     		b	.L17
 229              	.LVL23:
 230              	.L15:
  80:Application/Drivers/tmc/helpers/Functions.c **** 				{
 231              		.loc 1 80 5 is_stmt 1 view .LVU63
ARM GAS  C:\Users\minhp\AppData\Local\Temp\cceyqrQm.s 			page 8


  80:Application/Drivers/tmc/helpers/Functions.c **** 				{
 232              		.loc 1 80 8 is_stmt 0 view .LVU64
 233 005a B3F1806F 		cmp	r3, #67108864
 234 005e 04DB     		blt	.L18
  83:Application/Drivers/tmc/helpers/Functions.c **** 				}
 235              		.loc 1 83 6 is_stmt 1 view .LVU65
  83:Application/Drivers/tmc/helpers/Functions.c **** 				}
 236              		.loc 1 83 29 is_stmt 0 view .LVU66
 237 0060 1A15     		asrs	r2, r3, #20
  83:Application/Drivers/tmc/helpers/Functions.c **** 				}
 238              		.loc 1 83 26 view .LVU67
 239 0062 2749     		ldr	r1, .L29
 240 0064 895C     		ldrb	r1, [r1, r2]	@ zero_extendqisi2
  83:Application/Drivers/tmc/helpers/Functions.c **** 				}
 241              		.loc 1 83 9 view .LVU68
 242 0066 8901     		lsls	r1, r1, #6
 243              	.LVL24:
  83:Application/Drivers/tmc/helpers/Functions.c **** 				}
 244              		.loc 1 83 9 view .LVU69
 245 0068 DEE7     		b	.L17
 246              	.LVL25:
 247              	.L18:
  88:Application/Drivers/tmc/helpers/Functions.c **** 				}
 248              		.loc 1 88 6 is_stmt 1 view .LVU70
  88:Application/Drivers/tmc/helpers/Functions.c **** 				}
 249              		.loc 1 88 29 is_stmt 0 view .LVU71
 250 006a 9A14     		asrs	r2, r3, #18
  88:Application/Drivers/tmc/helpers/Functions.c **** 				}
 251              		.loc 1 88 26 view .LVU72
 252 006c 2449     		ldr	r1, .L29
 253 006e 895C     		ldrb	r1, [r1, r2]	@ zero_extendqisi2
  88:Application/Drivers/tmc/helpers/Functions.c **** 				}
 254              		.loc 1 88 9 view .LVU73
 255 0070 4901     		lsls	r1, r1, #5
 256              	.LVL26:
  88:Application/Drivers/tmc/helpers/Functions.c **** 				}
 257              		.loc 1 88 9 view .LVU74
 258 0072 D9E7     		b	.L17
 259              	.LVL27:
 260              	.L14:
  98:Application/Drivers/tmc/helpers/Functions.c **** 			{
 261              		.loc 1 98 4 is_stmt 1 view .LVU75
  98:Application/Drivers/tmc/helpers/Functions.c **** 			{
 262              		.loc 1 98 7 is_stmt 0 view .LVU76
 263 0074 B3F5801F 		cmp	r3, #1048576
 264 0078 11DB     		blt	.L20
 100:Application/Drivers/tmc/helpers/Functions.c **** 				{
 265              		.loc 1 100 5 is_stmt 1 view .LVU77
 100:Application/Drivers/tmc/helpers/Functions.c **** 				{
 266              		.loc 1 100 8 is_stmt 0 view .LVU78
 267 007a B3F5800F 		cmp	r3, #4194304
 268 007e 09DB     		blt	.L21
 103:Application/Drivers/tmc/helpers/Functions.c **** 				}
 269              		.loc 1 103 6 is_stmt 1 view .LVU79
 103:Application/Drivers/tmc/helpers/Functions.c **** 				}
 270              		.loc 1 103 29 is_stmt 0 view .LVU80
 271 0080 1A14     		asrs	r2, r3, #16
ARM GAS  C:\Users\minhp\AppData\Local\Temp\cceyqrQm.s 			page 9


 103:Application/Drivers/tmc/helpers/Functions.c **** 				}
 272              		.loc 1 103 26 view .LVU81
 273 0082 1F49     		ldr	r1, .L29
 274 0084 8A5C     		ldrb	r2, [r1, r2]	@ zero_extendqisi2
 103:Application/Drivers/tmc/helpers/Functions.c **** 				}
 275              		.loc 1 103 9 view .LVU82
 276 0086 1201     		lsls	r2, r2, #4
 277              	.LVL28:
 278              	.L22:
 126:Application/Drivers/tmc/helpers/Functions.c **** 		}
 279              		.loc 1 126 4 is_stmt 1 view .LVU83
 126:Application/Drivers/tmc/helpers/Functions.c **** 		}
 280              		.loc 1 126 13 is_stmt 0 view .LVU84
 281 0088 501C     		adds	r0, r2, #1
 282              	.LVL29:
 126:Application/Drivers/tmc/helpers/Functions.c **** 		}
 283              		.loc 1 126 22 view .LVU85
 284 008a 93FBF2F2 		sdiv	r2, r3, r2
 285              	.LVL30:
 126:Application/Drivers/tmc/helpers/Functions.c **** 		}
 286              		.loc 1 126 17 view .LVU86
 287 008e 1044     		add	r0, r0, r2
 288              	.LVL31:
 126:Application/Drivers/tmc/helpers/Functions.c **** 		}
 289              		.loc 1 126 7 view .LVU87
 290 0090 4010     		asrs	r0, r0, #1
 291              	.LVL32:
 126:Application/Drivers/tmc/helpers/Functions.c **** 		}
 292              		.loc 1 126 7 view .LVU88
 293 0092 D3E7     		b	.L19
 294              	.LVL33:
 295              	.L21:
 108:Application/Drivers/tmc/helpers/Functions.c **** 				}
 296              		.loc 1 108 6 is_stmt 1 view .LVU89
 108:Application/Drivers/tmc/helpers/Functions.c **** 				}
 297              		.loc 1 108 29 is_stmt 0 view .LVU90
 298 0094 9A13     		asrs	r2, r3, #14
 108:Application/Drivers/tmc/helpers/Functions.c **** 				}
 299              		.loc 1 108 26 view .LVU91
 300 0096 1A49     		ldr	r1, .L29
 301 0098 8A5C     		ldrb	r2, [r1, r2]	@ zero_extendqisi2
 108:Application/Drivers/tmc/helpers/Functions.c **** 				}
 302              		.loc 1 108 9 view .LVU92
 303 009a D200     		lsls	r2, r2, #3
 304              	.LVL34:
 108:Application/Drivers/tmc/helpers/Functions.c **** 				}
 305              		.loc 1 108 9 view .LVU93
 306 009c F4E7     		b	.L22
 307              	.LVL35:
 308              	.L20:
 113:Application/Drivers/tmc/helpers/Functions.c **** 				{
 309              		.loc 1 113 5 is_stmt 1 view .LVU94
 113:Application/Drivers/tmc/helpers/Functions.c **** 				{
 310              		.loc 1 113 8 is_stmt 0 view .LVU95
 311 009e B3F5802F 		cmp	r3, #262144
 312 00a2 04DB     		blt	.L23
 116:Application/Drivers/tmc/helpers/Functions.c **** 				}
ARM GAS  C:\Users\minhp\AppData\Local\Temp\cceyqrQm.s 			page 10


 313              		.loc 1 116 6 is_stmt 1 view .LVU96
 116:Application/Drivers/tmc/helpers/Functions.c **** 				}
 314              		.loc 1 116 29 is_stmt 0 view .LVU97
 315 00a4 1A13     		asrs	r2, r3, #12
 116:Application/Drivers/tmc/helpers/Functions.c **** 				}
 316              		.loc 1 116 26 view .LVU98
 317 00a6 1649     		ldr	r1, .L29
 318 00a8 8A5C     		ldrb	r2, [r1, r2]	@ zero_extendqisi2
 116:Application/Drivers/tmc/helpers/Functions.c **** 				}
 319              		.loc 1 116 9 view .LVU99
 320 00aa 9200     		lsls	r2, r2, #2
 321              	.LVL36:
 116:Application/Drivers/tmc/helpers/Functions.c **** 				}
 322              		.loc 1 116 9 view .LVU100
 323 00ac ECE7     		b	.L22
 324              	.LVL37:
 325              	.L23:
 121:Application/Drivers/tmc/helpers/Functions.c **** 				}
 326              		.loc 1 121 6 is_stmt 1 view .LVU101
 121:Application/Drivers/tmc/helpers/Functions.c **** 				}
 327              		.loc 1 121 29 is_stmt 0 view .LVU102
 328 00ae 9A12     		asrs	r2, r3, #10
 121:Application/Drivers/tmc/helpers/Functions.c **** 				}
 329              		.loc 1 121 26 view .LVU103
 330 00b0 1349     		ldr	r1, .L29
 331 00b2 8A5C     		ldrb	r2, [r1, r2]	@ zero_extendqisi2
 121:Application/Drivers/tmc/helpers/Functions.c **** 				}
 332              		.loc 1 121 9 view .LVU104
 333 00b4 5200     		lsls	r2, r2, #1
 334              	.LVL38:
 121:Application/Drivers/tmc/helpers/Functions.c **** 				}
 335              		.loc 1 121 9 view .LVU105
 336 00b6 E7E7     		b	.L22
 337              	.LVL39:
 338              	.L13:
 131:Application/Drivers/tmc/helpers/Functions.c **** 		{
 339              		.loc 1 131 3 is_stmt 1 view .LVU106
 131:Application/Drivers/tmc/helpers/Functions.c **** 		{
 340              		.loc 1 131 6 is_stmt 0 view .LVU107
 341 00b8 B3F5805F 		cmp	r3, #4096
 342 00bc 0DDB     		blt	.L24
 133:Application/Drivers/tmc/helpers/Functions.c **** 			{
 343              		.loc 1 133 4 is_stmt 1 view .LVU108
 133:Application/Drivers/tmc/helpers/Functions.c **** 			{
 344              		.loc 1 133 7 is_stmt 0 view .LVU109
 345 00be B3F5804F 		cmp	r3, #16384
 346 00c2 04DB     		blt	.L25
 136:Application/Drivers/tmc/helpers/Functions.c **** 			}
 347              		.loc 1 136 5 is_stmt 1 view .LVU110
 136:Application/Drivers/tmc/helpers/Functions.c **** 			}
 348              		.loc 1 136 29 is_stmt 0 view .LVU111
 349 00c4 1A12     		asrs	r2, r3, #8
 136:Application/Drivers/tmc/helpers/Functions.c **** 			}
 350              		.loc 1 136 26 view .LVU112
 351 00c6 0E49     		ldr	r1, .L29
 352 00c8 885C     		ldrb	r0, [r1, r2]	@ zero_extendqisi2
 353              	.LVL40:
ARM GAS  C:\Users\minhp\AppData\Local\Temp\cceyqrQm.s 			page 11


 136:Application/Drivers/tmc/helpers/Functions.c **** 			}
 354              		.loc 1 136 8 view .LVU113
 355 00ca 0130     		adds	r0, r0, #1
 356              	.LVL41:
 136:Application/Drivers/tmc/helpers/Functions.c **** 			}
 357              		.loc 1 136 8 view .LVU114
 358 00cc B6E7     		b	.L19
 359              	.LVL42:
 360              	.L25:
 141:Application/Drivers/tmc/helpers/Functions.c **** 			}
 361              		.loc 1 141 5 is_stmt 1 view .LVU115
 141:Application/Drivers/tmc/helpers/Functions.c **** 			}
 362              		.loc 1 141 29 is_stmt 0 view .LVU116
 363 00ce 9A11     		asrs	r2, r3, #6
 141:Application/Drivers/tmc/helpers/Functions.c **** 			}
 364              		.loc 1 141 26 view .LVU117
 365 00d0 0B49     		ldr	r1, .L29
 366 00d2 885C     		ldrb	r0, [r1, r2]	@ zero_extendqisi2
 367              	.LVL43:
 141:Application/Drivers/tmc/helpers/Functions.c **** 			}
 368              		.loc 1 141 10 view .LVU118
 369 00d4 4008     		lsrs	r0, r0, #1
 141:Application/Drivers/tmc/helpers/Functions.c **** 			}
 370              		.loc 1 141 8 view .LVU119
 371 00d6 0130     		adds	r0, r0, #1
 372              	.LVL44:
 141:Application/Drivers/tmc/helpers/Functions.c **** 			}
 373              		.loc 1 141 8 view .LVU120
 374 00d8 B0E7     		b	.L19
 375              	.LVL45:
 376              	.L24:
 146:Application/Drivers/tmc/helpers/Functions.c **** 			{
 377              		.loc 1 146 4 is_stmt 1 view .LVU121
 146:Application/Drivers/tmc/helpers/Functions.c **** 			{
 378              		.loc 1 146 7 is_stmt 0 view .LVU122
 379 00da B3F5806F 		cmp	r3, #1024
 380 00de 05DB     		blt	.L26
 149:Application/Drivers/tmc/helpers/Functions.c **** 			}
 381              		.loc 1 149 5 is_stmt 1 view .LVU123
 149:Application/Drivers/tmc/helpers/Functions.c **** 			}
 382              		.loc 1 149 29 is_stmt 0 view .LVU124
 383 00e0 1A11     		asrs	r2, r3, #4
 149:Application/Drivers/tmc/helpers/Functions.c **** 			}
 384              		.loc 1 149 26 view .LVU125
 385 00e2 0749     		ldr	r1, .L29
 386 00e4 885C     		ldrb	r0, [r1, r2]	@ zero_extendqisi2
 387              	.LVL46:
 149:Application/Drivers/tmc/helpers/Functions.c **** 			}
 388              		.loc 1 149 10 view .LVU126
 389 00e6 8008     		lsrs	r0, r0, #2
 149:Application/Drivers/tmc/helpers/Functions.c **** 			}
 390              		.loc 1 149 8 view .LVU127
 391 00e8 0130     		adds	r0, r0, #1
 392              	.LVL47:
 149:Application/Drivers/tmc/helpers/Functions.c **** 			}
 393              		.loc 1 149 8 view .LVU128
 394 00ea A7E7     		b	.L19
ARM GAS  C:\Users\minhp\AppData\Local\Temp\cceyqrQm.s 			page 12


 395              	.LVL48:
 396              	.L26:
 154:Application/Drivers/tmc/helpers/Functions.c **** 			}
 397              		.loc 1 154 5 is_stmt 1 view .LVU129
 154:Application/Drivers/tmc/helpers/Functions.c **** 			}
 398              		.loc 1 154 29 is_stmt 0 view .LVU130
 399 00ec 9A10     		asrs	r2, r3, #2
 154:Application/Drivers/tmc/helpers/Functions.c **** 			}
 400              		.loc 1 154 26 view .LVU131
 401 00ee 0449     		ldr	r1, .L29
 402 00f0 885C     		ldrb	r0, [r1, r2]	@ zero_extendqisi2
 403              	.LVL49:
 154:Application/Drivers/tmc/helpers/Functions.c **** 			}
 404              		.loc 1 154 10 view .LVU132
 405 00f2 C008     		lsrs	r0, r0, #3
 154:Application/Drivers/tmc/helpers/Functions.c **** 			}
 406              		.loc 1 154 8 view .LVU133
 407 00f4 0130     		adds	r0, r0, #1
 408              	.LVL50:
 154:Application/Drivers/tmc/helpers/Functions.c **** 			}
 409              		.loc 1 154 8 view .LVU134
 410 00f6 A1E7     		b	.L19
 411              	.LVL51:
 412              	.L27:
  56:Application/Drivers/tmc/helpers/Functions.c **** 
 413              		.loc 1 56 10 view .LVU135
 414 00f8 4FF0FF30 		mov	r0, #-1
 415              	.LVL52:
 416              	.L10:
 162:Application/Drivers/tmc/helpers/Functions.c **** 
 163:Application/Drivers/tmc/helpers/Functions.c **** 	return xn;
 164:Application/Drivers/tmc/helpers/Functions.c **** }
 417              		.loc 1 164 1 view .LVU136
 418 00fc 7047     		bx	lr
 419              	.L30:
 420 00fe 00BF     		.align	2
 421              	.L29:
 422 0100 00000000 		.word	.LANCHOR0
 423              		.cfi_endproc
 424              	.LFE2:
 426              		.section	.text.tmc_filterPT1,"ax",%progbits
 427              		.align	1
 428              		.global	tmc_filterPT1
 429              		.syntax unified
 430              		.thumb
 431              		.thumb_func
 433              	tmc_filterPT1:
 434              	.LVL53:
 435              	.LFB3:
 165:Application/Drivers/tmc/helpers/Functions.c **** 
 166:Application/Drivers/tmc/helpers/Functions.c **** int32_t tmc_filterPT1(int64_t *akku, int32_t newValue, int32_t lastValue, uint8_t actualFilter, uin
 167:Application/Drivers/tmc/helpers/Functions.c **** {
 436              		.loc 1 167 1 is_stmt 1 view -0
 437              		.cfi_startproc
 438              		@ args = 4, pretend = 0, frame = 0
 439              		@ frame_needed = 0, uses_anonymous_args = 0
 440              		.loc 1 167 1 is_stmt 0 view .LVU138
ARM GAS  C:\Users\minhp\AppData\Local\Temp\cceyqrQm.s 			page 13


 441 0000 00B5     		push	{lr}
 442              	.LCFI2:
 443              		.cfi_def_cfa_offset 4
 444              		.cfi_offset 14, -4
 445 0002 9DF804C0 		ldrb	ip, [sp, #4]	@ zero_extendqisi2
 168:Application/Drivers/tmc/helpers/Functions.c **** 	*akku += (newValue-lastValue) << (maxFilter-actualFilter);
 446              		.loc 1 168 2 is_stmt 1 view .LVU139
 447              		.loc 1 168 20 is_stmt 0 view .LVU140
 448 0006 8A1A     		subs	r2, r1, r2
 449              	.LVL54:
 450              		.loc 1 168 45 view .LVU141
 451 0008 ACEB0303 		sub	r3, ip, r3
 452              	.LVL55:
 453              		.loc 1 168 32 view .LVU142
 454 000c 9A40     		lsls	r2, r2, r3
 455              		.loc 1 168 8 view .LVU143
 456 000e 0368     		ldr	r3, [r0]
 457 0010 4168     		ldr	r1, [r0, #4]
 458              	.LVL56:
 459              		.loc 1 168 8 view .LVU144
 460 0012 D318     		adds	r3, r2, r3
 461 0014 41EBE272 		adc	r2, r1, r2, asr #31
 462 0018 0360     		str	r3, [r0]
 463 001a 4260     		str	r2, [r0, #4]
 169:Application/Drivers/tmc/helpers/Functions.c **** 	return *akku >> maxFilter;
 464              		.loc 1 169 2 is_stmt 1 view .LVU145
 465              		.loc 1 169 15 is_stmt 0 view .LVU146
 466 001c CCF12001 		rsb	r1, ip, #32
 467 0020 BCF1200E 		subs	lr, ip, #32
 468 0024 23FA0CF0 		lsr	r0, r3, ip
 469              	.LVL57:
 470              		.loc 1 169 15 view .LVU147
 471 0028 02FA01F1 		lsl	r1, r2, r1
 472 002c 40EA0100 		orr	r0, r0, r1
 473 0030 03D4     		bmi	.L32
 474 0032 42FA0EFE 		asr	lr, r2, lr
 475 0036 40EA0E00 		orr	r0, r0, lr
 476              	.L32:
 170:Application/Drivers/tmc/helpers/Functions.c **** }
 477              		.loc 1 170 1 view .LVU148
 478 003a 5DF804FB 		ldr	pc, [sp], #4
 479              		.loc 1 170 1 view .LVU149
 480              		.cfi_endproc
 481              	.LFE3:
 483              		.section	.rodata.sqrttable,"a"
 484              		.align	2
 485              		.set	.LANCHOR0,. + 0
 488              	sqrttable:
 489 0000 0010161B 		.ascii	"\000\020\026\033 #'*-02579;=@ACEGIKLNPQSTVWYZ[]^`ab"
 489      2023272A 
 489      2D303235 
 489      37393B3D 
 489      40414345 
 490 0027 63656667 		.ascii	"cefghjklmnpqrstuvwxyz{|}~\200\200\201\202\203\204\205"
 490      686A6B6C 
 490      6D6E7071 
 490      72737475 
ARM GAS  C:\Users\minhp\AppData\Local\Temp\cceyqrQm.s 			page 14


 490      76777879 
 491 0047 86878889 		.ascii	"\206\207\210\211\212\213\214\215\216\217\220\220\221"
 491      8A8B8C8D 
 491      8E8F9090 
 491      91
 492 0054 92939495 		.ascii	"\222\223\224\225\226\226\227\230\231\232\233\233\234"
 492      96969798 
 492      999A9B9B 
 492      9C
 493 0061 9D9E9FA0 		.ascii	"\235\236\237\240\240\241\242\243\243\244\245\246\247"
 493      A0A1A2A3 
 493      A3A4A5A6 
 493      A7
 494 006e A7A8A9AA 		.ascii	"\247\250\251\252\252\253\254\255\255\256\257\260\260"
 494      AAABACAD 
 494      ADAEAFB0 
 494      B0
 495 007b B1B2B2B3 		.ascii	"\261\262\262\263\264\265\265\266\267\267\270\271\271"
 495      B4B5B5B6 
 495      B7B7B8B9 
 495      B9
 496 0088 BABBBBBC 		.ascii	"\272\273\273\274\275\275\276\277\300\300\301\301\302"
 496      BDBDBEBF 
 496      C0C0C1C1 
 496      C2
 497 0095 C3C3C4C5 		.ascii	"\303\303\304\305\305\306\307\307\310\311\311\312\313"
 497      C5C6C7C7 
 497      C8C9C9CA 
 497      CB
 498 00a2 CBCCCCCD 		.ascii	"\313\314\314\315\316\316\317\320\320\321\321\322\323"
 498      CECECFD0 
 498      D0D1D1D2 
 498      D3
 499 00af D3D4D4D5 		.ascii	"\323\324\324\325\326\326\327\327\330\331\331\332\332"
 499      D6D6D7D7 
 499      D8D9D9DA 
 499      DA
 500 00bc DBDBDCDD 		.ascii	"\333\333\334\335\335\336\336\337\340\340\341\341\342"
 500      DDDEDEDF 
 500      E0E0E1E1 
 500      E2
 501 00c9 E2E3E3E4 		.ascii	"\342\343\343\344\345\345\346\346\347\347\350\350\351"
 501      E5E5E6E6 
 501      E7E7E8E8 
 501      E9
 502 00d6 EAEAEBEB 		.ascii	"\352\352\353\353\354\354\355\355\356\356\357\360\360"
 502      ECECEDED 
 502      EEEEEFF0 
 502      F0
 503 00e3 F1F1F2F2 		.ascii	"\361\361\362\362\363\363\364\364\365\365\366\366\367"
 503      F3F3F4F4 
 503      F5F5F6F6 
 503      F7
 504 00f0 F7F8F8F9 		.ascii	"\367\370\370\371\371\372\372\373\373\374\374\375\375"
 504      F9FAFAFB 
 504      FBFCFCFD 
 504      FD
ARM GAS  C:\Users\minhp\AppData\Local\Temp\cceyqrQm.s 			page 15


 505 00fd FEFEFF   		.ascii	"\376\376\377"
 506              		.text
 507              	.Letext0:
 508              		.file 2 "c:\\program files (x86)\\gnu arm embedded toolchain\\10 2021.10\\arm-none-eabi\\include\\
 509              		.file 3 "c:\\program files (x86)\\gnu arm embedded toolchain\\10 2021.10\\arm-none-eabi\\include\\
ARM GAS  C:\Users\minhp\AppData\Local\Temp\cceyqrQm.s 			page 16

