ARM GAS  C:\Users\minhp\AppData\Local\Temp\ccWBVzXh.s 			page 1


   1              		.cpu cortex-m4
   2              		.arch armv7e-m
   3              		.fpu fpv4-sp-d16
   4              		.eabi_attribute 27, 1
   5              		.eabi_attribute 28, 1
   6              		.eabi_attribute 20, 1
   7              		.eabi_attribute 21, 1
   8              		.eabi_attribute 23, 3
   9              		.eabi_attribute 24, 1
  10              		.eabi_attribute 25, 1
  11              		.eabi_attribute 26, 1
  12              		.eabi_attribute 30, 1
  13              		.eabi_attribute 34, 1
  14              		.eabi_attribute 18, 4
  15              		.file	"stm32f4xx_hal_exti.c"
  16              		.text
  17              	.Ltext0:
  18              		.cfi_sections	.debug_frame
  19              		.section	.rodata.HAL_EXTI_SetConfigLine.str1.4,"aMS",%progbits,1
  20              		.align	2
  21              	.LC0:
  22 0000 44726976 		.ascii	"Drivers/STM32F4xx_HAL_Driver/Src/stm32f4xx_hal_exti"
  22      6572732F 
  22      53544D33 
  22      32463478 
  22      785F4841 
  23 0033 2E6300   		.ascii	".c\000"
  24              		.section	.text.HAL_EXTI_SetConfigLine,"ax",%progbits
  25              		.align	1
  26              		.global	HAL_EXTI_SetConfigLine
  27              		.syntax unified
  28              		.thumb
  29              		.thumb_func
  31              	HAL_EXTI_SetConfigLine:
  32              	.LVL0:
  33              	.LFB130:
  34              		.file 1 "Drivers/STM32F4xx_HAL_Driver/Src/stm32f4xx_hal_exti.c"
   1:Drivers/STM32F4xx_HAL_Driver/Src/stm32f4xx_hal_exti.c **** /**
   2:Drivers/STM32F4xx_HAL_Driver/Src/stm32f4xx_hal_exti.c ****   ******************************************************************************
   3:Drivers/STM32F4xx_HAL_Driver/Src/stm32f4xx_hal_exti.c ****   * @file    stm32f4xx_hal_exti.c
   4:Drivers/STM32F4xx_HAL_Driver/Src/stm32f4xx_hal_exti.c ****   * @author  MCD Application Team
   5:Drivers/STM32F4xx_HAL_Driver/Src/stm32f4xx_hal_exti.c ****   * @brief   EXTI HAL module driver.
   6:Drivers/STM32F4xx_HAL_Driver/Src/stm32f4xx_hal_exti.c ****   *          This file provides firmware functions to manage the following
   7:Drivers/STM32F4xx_HAL_Driver/Src/stm32f4xx_hal_exti.c ****   *          functionalities of the Extended Interrupts and events controller (EXTI) peripheral:
   8:Drivers/STM32F4xx_HAL_Driver/Src/stm32f4xx_hal_exti.c ****   *           + Initialization and de-initialization functions
   9:Drivers/STM32F4xx_HAL_Driver/Src/stm32f4xx_hal_exti.c ****   *           + IO operation functions
  10:Drivers/STM32F4xx_HAL_Driver/Src/stm32f4xx_hal_exti.c ****   *
  11:Drivers/STM32F4xx_HAL_Driver/Src/stm32f4xx_hal_exti.c ****   ******************************************************************************
  12:Drivers/STM32F4xx_HAL_Driver/Src/stm32f4xx_hal_exti.c ****   * @attention
  13:Drivers/STM32F4xx_HAL_Driver/Src/stm32f4xx_hal_exti.c ****   *
  14:Drivers/STM32F4xx_HAL_Driver/Src/stm32f4xx_hal_exti.c ****   * Copyright (c) 2018 STMicroelectronics.
  15:Drivers/STM32F4xx_HAL_Driver/Src/stm32f4xx_hal_exti.c ****   * All rights reserved.
  16:Drivers/STM32F4xx_HAL_Driver/Src/stm32f4xx_hal_exti.c ****   *
  17:Drivers/STM32F4xx_HAL_Driver/Src/stm32f4xx_hal_exti.c ****   * This software is licensed under terms that can be found in the LICENSE file
  18:Drivers/STM32F4xx_HAL_Driver/Src/stm32f4xx_hal_exti.c ****   * in the root directory of this software component.
  19:Drivers/STM32F4xx_HAL_Driver/Src/stm32f4xx_hal_exti.c ****   * If no LICENSE file comes with this software, it is provided AS-IS.
  20:Drivers/STM32F4xx_HAL_Driver/Src/stm32f4xx_hal_exti.c ****   *
ARM GAS  C:\Users\minhp\AppData\Local\Temp\ccWBVzXh.s 			page 2


  21:Drivers/STM32F4xx_HAL_Driver/Src/stm32f4xx_hal_exti.c ****   ******************************************************************************
  22:Drivers/STM32F4xx_HAL_Driver/Src/stm32f4xx_hal_exti.c ****   @verbatim
  23:Drivers/STM32F4xx_HAL_Driver/Src/stm32f4xx_hal_exti.c ****   ==============================================================================
  24:Drivers/STM32F4xx_HAL_Driver/Src/stm32f4xx_hal_exti.c ****                     ##### EXTI Peripheral features #####
  25:Drivers/STM32F4xx_HAL_Driver/Src/stm32f4xx_hal_exti.c ****   ==============================================================================
  26:Drivers/STM32F4xx_HAL_Driver/Src/stm32f4xx_hal_exti.c ****   [..]
  27:Drivers/STM32F4xx_HAL_Driver/Src/stm32f4xx_hal_exti.c ****     (+) Each Exti line can be configured within this driver.
  28:Drivers/STM32F4xx_HAL_Driver/Src/stm32f4xx_hal_exti.c **** 
  29:Drivers/STM32F4xx_HAL_Driver/Src/stm32f4xx_hal_exti.c ****     (+) Exti line can be configured in 3 different modes
  30:Drivers/STM32F4xx_HAL_Driver/Src/stm32f4xx_hal_exti.c ****         (++) Interrupt
  31:Drivers/STM32F4xx_HAL_Driver/Src/stm32f4xx_hal_exti.c ****         (++) Event
  32:Drivers/STM32F4xx_HAL_Driver/Src/stm32f4xx_hal_exti.c ****         (++) Both of them
  33:Drivers/STM32F4xx_HAL_Driver/Src/stm32f4xx_hal_exti.c **** 
  34:Drivers/STM32F4xx_HAL_Driver/Src/stm32f4xx_hal_exti.c ****     (+) Configurable Exti lines can be configured with 3 different triggers
  35:Drivers/STM32F4xx_HAL_Driver/Src/stm32f4xx_hal_exti.c ****         (++) Rising
  36:Drivers/STM32F4xx_HAL_Driver/Src/stm32f4xx_hal_exti.c ****         (++) Falling
  37:Drivers/STM32F4xx_HAL_Driver/Src/stm32f4xx_hal_exti.c ****         (++) Both of them
  38:Drivers/STM32F4xx_HAL_Driver/Src/stm32f4xx_hal_exti.c **** 
  39:Drivers/STM32F4xx_HAL_Driver/Src/stm32f4xx_hal_exti.c ****     (+) When set in interrupt mode, configurable Exti lines have two different
  40:Drivers/STM32F4xx_HAL_Driver/Src/stm32f4xx_hal_exti.c ****         interrupts pending registers which allow to distinguish which transition
  41:Drivers/STM32F4xx_HAL_Driver/Src/stm32f4xx_hal_exti.c ****         occurs:
  42:Drivers/STM32F4xx_HAL_Driver/Src/stm32f4xx_hal_exti.c ****         (++) Rising edge pending interrupt
  43:Drivers/STM32F4xx_HAL_Driver/Src/stm32f4xx_hal_exti.c ****         (++) Falling
  44:Drivers/STM32F4xx_HAL_Driver/Src/stm32f4xx_hal_exti.c **** 
  45:Drivers/STM32F4xx_HAL_Driver/Src/stm32f4xx_hal_exti.c ****     (+) Exti lines 0 to 15 are linked to gpio pin number 0 to 15. Gpio port can
  46:Drivers/STM32F4xx_HAL_Driver/Src/stm32f4xx_hal_exti.c ****         be selected through multiplexer.
  47:Drivers/STM32F4xx_HAL_Driver/Src/stm32f4xx_hal_exti.c **** 
  48:Drivers/STM32F4xx_HAL_Driver/Src/stm32f4xx_hal_exti.c ****                      ##### How to use this driver #####
  49:Drivers/STM32F4xx_HAL_Driver/Src/stm32f4xx_hal_exti.c ****   ==============================================================================
  50:Drivers/STM32F4xx_HAL_Driver/Src/stm32f4xx_hal_exti.c ****   [..]
  51:Drivers/STM32F4xx_HAL_Driver/Src/stm32f4xx_hal_exti.c **** 
  52:Drivers/STM32F4xx_HAL_Driver/Src/stm32f4xx_hal_exti.c ****     (#) Configure the EXTI line using HAL_EXTI_SetConfigLine().
  53:Drivers/STM32F4xx_HAL_Driver/Src/stm32f4xx_hal_exti.c ****         (++) Choose the interrupt line number by setting "Line" member from
  54:Drivers/STM32F4xx_HAL_Driver/Src/stm32f4xx_hal_exti.c ****              EXTI_ConfigTypeDef structure.
  55:Drivers/STM32F4xx_HAL_Driver/Src/stm32f4xx_hal_exti.c ****         (++) Configure the interrupt and/or event mode using "Mode" member from
  56:Drivers/STM32F4xx_HAL_Driver/Src/stm32f4xx_hal_exti.c ****              EXTI_ConfigTypeDef structure.
  57:Drivers/STM32F4xx_HAL_Driver/Src/stm32f4xx_hal_exti.c ****         (++) For configurable lines, configure rising and/or falling trigger
  58:Drivers/STM32F4xx_HAL_Driver/Src/stm32f4xx_hal_exti.c ****              "Trigger" member from EXTI_ConfigTypeDef structure.
  59:Drivers/STM32F4xx_HAL_Driver/Src/stm32f4xx_hal_exti.c ****         (++) For Exti lines linked to gpio, choose gpio port using "GPIOSel"
  60:Drivers/STM32F4xx_HAL_Driver/Src/stm32f4xx_hal_exti.c ****              member from GPIO_InitTypeDef structure.
  61:Drivers/STM32F4xx_HAL_Driver/Src/stm32f4xx_hal_exti.c **** 
  62:Drivers/STM32F4xx_HAL_Driver/Src/stm32f4xx_hal_exti.c ****     (#) Get current Exti configuration of a dedicated line using
  63:Drivers/STM32F4xx_HAL_Driver/Src/stm32f4xx_hal_exti.c ****         HAL_EXTI_GetConfigLine().
  64:Drivers/STM32F4xx_HAL_Driver/Src/stm32f4xx_hal_exti.c ****         (++) Provide exiting handle as parameter.
  65:Drivers/STM32F4xx_HAL_Driver/Src/stm32f4xx_hal_exti.c ****         (++) Provide pointer on EXTI_ConfigTypeDef structure as second parameter.
  66:Drivers/STM32F4xx_HAL_Driver/Src/stm32f4xx_hal_exti.c **** 
  67:Drivers/STM32F4xx_HAL_Driver/Src/stm32f4xx_hal_exti.c ****     (#) Clear Exti configuration of a dedicated line using HAL_EXTI_GetConfigLine().
  68:Drivers/STM32F4xx_HAL_Driver/Src/stm32f4xx_hal_exti.c ****         (++) Provide exiting handle as parameter.
  69:Drivers/STM32F4xx_HAL_Driver/Src/stm32f4xx_hal_exti.c **** 
  70:Drivers/STM32F4xx_HAL_Driver/Src/stm32f4xx_hal_exti.c ****     (#) Register callback to treat Exti interrupts using HAL_EXTI_RegisterCallback().
  71:Drivers/STM32F4xx_HAL_Driver/Src/stm32f4xx_hal_exti.c ****         (++) Provide exiting handle as first parameter.
  72:Drivers/STM32F4xx_HAL_Driver/Src/stm32f4xx_hal_exti.c ****         (++) Provide which callback will be registered using one value from
  73:Drivers/STM32F4xx_HAL_Driver/Src/stm32f4xx_hal_exti.c ****              EXTI_CallbackIDTypeDef.
  74:Drivers/STM32F4xx_HAL_Driver/Src/stm32f4xx_hal_exti.c ****         (++) Provide callback function pointer.
  75:Drivers/STM32F4xx_HAL_Driver/Src/stm32f4xx_hal_exti.c **** 
  76:Drivers/STM32F4xx_HAL_Driver/Src/stm32f4xx_hal_exti.c ****     (#) Get interrupt pending bit using HAL_EXTI_GetPending().
  77:Drivers/STM32F4xx_HAL_Driver/Src/stm32f4xx_hal_exti.c **** 
ARM GAS  C:\Users\minhp\AppData\Local\Temp\ccWBVzXh.s 			page 3


  78:Drivers/STM32F4xx_HAL_Driver/Src/stm32f4xx_hal_exti.c ****     (#) Clear interrupt pending bit using HAL_EXTI_GetPending().
  79:Drivers/STM32F4xx_HAL_Driver/Src/stm32f4xx_hal_exti.c **** 
  80:Drivers/STM32F4xx_HAL_Driver/Src/stm32f4xx_hal_exti.c ****     (#) Generate software interrupt using HAL_EXTI_GenerateSWI().
  81:Drivers/STM32F4xx_HAL_Driver/Src/stm32f4xx_hal_exti.c **** 
  82:Drivers/STM32F4xx_HAL_Driver/Src/stm32f4xx_hal_exti.c ****   @endverbatim
  83:Drivers/STM32F4xx_HAL_Driver/Src/stm32f4xx_hal_exti.c ****   */
  84:Drivers/STM32F4xx_HAL_Driver/Src/stm32f4xx_hal_exti.c **** 
  85:Drivers/STM32F4xx_HAL_Driver/Src/stm32f4xx_hal_exti.c **** /* Includes ------------------------------------------------------------------*/
  86:Drivers/STM32F4xx_HAL_Driver/Src/stm32f4xx_hal_exti.c **** #include "stm32f4xx_hal.h"
  87:Drivers/STM32F4xx_HAL_Driver/Src/stm32f4xx_hal_exti.c **** 
  88:Drivers/STM32F4xx_HAL_Driver/Src/stm32f4xx_hal_exti.c **** /** @addtogroup STM32F4xx_HAL_Driver
  89:Drivers/STM32F4xx_HAL_Driver/Src/stm32f4xx_hal_exti.c ****   * @{
  90:Drivers/STM32F4xx_HAL_Driver/Src/stm32f4xx_hal_exti.c ****   */
  91:Drivers/STM32F4xx_HAL_Driver/Src/stm32f4xx_hal_exti.c **** 
  92:Drivers/STM32F4xx_HAL_Driver/Src/stm32f4xx_hal_exti.c **** /** @addtogroup EXTI
  93:Drivers/STM32F4xx_HAL_Driver/Src/stm32f4xx_hal_exti.c ****   * @{
  94:Drivers/STM32F4xx_HAL_Driver/Src/stm32f4xx_hal_exti.c ****   */
  95:Drivers/STM32F4xx_HAL_Driver/Src/stm32f4xx_hal_exti.c **** /** MISRA C:2012 deviation rule has been granted for following rule:
  96:Drivers/STM32F4xx_HAL_Driver/Src/stm32f4xx_hal_exti.c ****   * Rule-18.1_b - Medium: Array `EXTICR' 1st subscript interval [0,7] may be out
  97:Drivers/STM32F4xx_HAL_Driver/Src/stm32f4xx_hal_exti.c ****   * of bounds [0,3] in following API :
  98:Drivers/STM32F4xx_HAL_Driver/Src/stm32f4xx_hal_exti.c ****   * HAL_EXTI_SetConfigLine
  99:Drivers/STM32F4xx_HAL_Driver/Src/stm32f4xx_hal_exti.c ****   * HAL_EXTI_GetConfigLine
 100:Drivers/STM32F4xx_HAL_Driver/Src/stm32f4xx_hal_exti.c ****   * HAL_EXTI_ClearConfigLine
 101:Drivers/STM32F4xx_HAL_Driver/Src/stm32f4xx_hal_exti.c ****   */
 102:Drivers/STM32F4xx_HAL_Driver/Src/stm32f4xx_hal_exti.c **** 
 103:Drivers/STM32F4xx_HAL_Driver/Src/stm32f4xx_hal_exti.c **** #ifdef HAL_EXTI_MODULE_ENABLED
 104:Drivers/STM32F4xx_HAL_Driver/Src/stm32f4xx_hal_exti.c **** 
 105:Drivers/STM32F4xx_HAL_Driver/Src/stm32f4xx_hal_exti.c **** /* Private typedef -----------------------------------------------------------*/
 106:Drivers/STM32F4xx_HAL_Driver/Src/stm32f4xx_hal_exti.c **** /* Private defines -----------------------------------------------------------*/
 107:Drivers/STM32F4xx_HAL_Driver/Src/stm32f4xx_hal_exti.c **** /** @defgroup EXTI_Private_Constants EXTI Private Constants
 108:Drivers/STM32F4xx_HAL_Driver/Src/stm32f4xx_hal_exti.c ****   * @{
 109:Drivers/STM32F4xx_HAL_Driver/Src/stm32f4xx_hal_exti.c ****   */
 110:Drivers/STM32F4xx_HAL_Driver/Src/stm32f4xx_hal_exti.c **** 
 111:Drivers/STM32F4xx_HAL_Driver/Src/stm32f4xx_hal_exti.c **** /**
 112:Drivers/STM32F4xx_HAL_Driver/Src/stm32f4xx_hal_exti.c ****   * @}
 113:Drivers/STM32F4xx_HAL_Driver/Src/stm32f4xx_hal_exti.c ****   */
 114:Drivers/STM32F4xx_HAL_Driver/Src/stm32f4xx_hal_exti.c **** 
 115:Drivers/STM32F4xx_HAL_Driver/Src/stm32f4xx_hal_exti.c **** /* Private macros ------------------------------------------------------------*/
 116:Drivers/STM32F4xx_HAL_Driver/Src/stm32f4xx_hal_exti.c **** /* Private variables ---------------------------------------------------------*/
 117:Drivers/STM32F4xx_HAL_Driver/Src/stm32f4xx_hal_exti.c **** /* Private function prototypes -----------------------------------------------*/
 118:Drivers/STM32F4xx_HAL_Driver/Src/stm32f4xx_hal_exti.c **** /* Exported functions --------------------------------------------------------*/
 119:Drivers/STM32F4xx_HAL_Driver/Src/stm32f4xx_hal_exti.c **** 
 120:Drivers/STM32F4xx_HAL_Driver/Src/stm32f4xx_hal_exti.c **** /** @addtogroup EXTI_Exported_Functions
 121:Drivers/STM32F4xx_HAL_Driver/Src/stm32f4xx_hal_exti.c ****   * @{
 122:Drivers/STM32F4xx_HAL_Driver/Src/stm32f4xx_hal_exti.c ****   */
 123:Drivers/STM32F4xx_HAL_Driver/Src/stm32f4xx_hal_exti.c **** 
 124:Drivers/STM32F4xx_HAL_Driver/Src/stm32f4xx_hal_exti.c **** /** @addtogroup EXTI_Exported_Functions_Group1
 125:Drivers/STM32F4xx_HAL_Driver/Src/stm32f4xx_hal_exti.c ****   *  @brief    Configuration functions
 126:Drivers/STM32F4xx_HAL_Driver/Src/stm32f4xx_hal_exti.c ****   *
 127:Drivers/STM32F4xx_HAL_Driver/Src/stm32f4xx_hal_exti.c **** @verbatim
 128:Drivers/STM32F4xx_HAL_Driver/Src/stm32f4xx_hal_exti.c ****  ===============================================================================
 129:Drivers/STM32F4xx_HAL_Driver/Src/stm32f4xx_hal_exti.c ****               ##### Configuration functions #####
 130:Drivers/STM32F4xx_HAL_Driver/Src/stm32f4xx_hal_exti.c ****  ===============================================================================
 131:Drivers/STM32F4xx_HAL_Driver/Src/stm32f4xx_hal_exti.c **** 
 132:Drivers/STM32F4xx_HAL_Driver/Src/stm32f4xx_hal_exti.c **** @endverbatim
 133:Drivers/STM32F4xx_HAL_Driver/Src/stm32f4xx_hal_exti.c ****   * @{
 134:Drivers/STM32F4xx_HAL_Driver/Src/stm32f4xx_hal_exti.c ****   */
ARM GAS  C:\Users\minhp\AppData\Local\Temp\ccWBVzXh.s 			page 4


 135:Drivers/STM32F4xx_HAL_Driver/Src/stm32f4xx_hal_exti.c **** 
 136:Drivers/STM32F4xx_HAL_Driver/Src/stm32f4xx_hal_exti.c **** /**
 137:Drivers/STM32F4xx_HAL_Driver/Src/stm32f4xx_hal_exti.c ****   * @brief  Set configuration of a dedicated Exti line.
 138:Drivers/STM32F4xx_HAL_Driver/Src/stm32f4xx_hal_exti.c ****   * @param  hexti Exti handle.
 139:Drivers/STM32F4xx_HAL_Driver/Src/stm32f4xx_hal_exti.c ****   * @param  pExtiConfig Pointer on EXTI configuration to be set.
 140:Drivers/STM32F4xx_HAL_Driver/Src/stm32f4xx_hal_exti.c ****   * @retval HAL Status.
 141:Drivers/STM32F4xx_HAL_Driver/Src/stm32f4xx_hal_exti.c ****   */
 142:Drivers/STM32F4xx_HAL_Driver/Src/stm32f4xx_hal_exti.c **** HAL_StatusTypeDef HAL_EXTI_SetConfigLine(EXTI_HandleTypeDef *hexti, EXTI_ConfigTypeDef *pExtiConfig
 143:Drivers/STM32F4xx_HAL_Driver/Src/stm32f4xx_hal_exti.c **** {
  35              		.loc 1 143 1 view -0
  36              		.cfi_startproc
  37              		@ args = 0, pretend = 0, frame = 0
  38              		@ frame_needed = 0, uses_anonymous_args = 0
 144:Drivers/STM32F4xx_HAL_Driver/Src/stm32f4xx_hal_exti.c ****   uint32_t regval;
  39              		.loc 1 144 3 view .LVU1
 145:Drivers/STM32F4xx_HAL_Driver/Src/stm32f4xx_hal_exti.c ****   uint32_t linepos;
  40              		.loc 1 145 3 view .LVU2
 146:Drivers/STM32F4xx_HAL_Driver/Src/stm32f4xx_hal_exti.c ****   uint32_t maskline;
  41              		.loc 1 146 3 view .LVU3
 147:Drivers/STM32F4xx_HAL_Driver/Src/stm32f4xx_hal_exti.c **** 
 148:Drivers/STM32F4xx_HAL_Driver/Src/stm32f4xx_hal_exti.c ****   /* Check null pointer */
 149:Drivers/STM32F4xx_HAL_Driver/Src/stm32f4xx_hal_exti.c ****   if ((hexti == NULL) || (pExtiConfig == NULL))
  42              		.loc 1 149 3 view .LVU4
  43              		.loc 1 149 6 is_stmt 0 view .LVU5
  44 0000 0028     		cmp	r0, #0
  45 0002 00F0A080 		beq	.L19
 143:Drivers/STM32F4xx_HAL_Driver/Src/stm32f4xx_hal_exti.c ****   uint32_t regval;
  46              		.loc 1 143 1 discriminator 1 view .LVU6
  47 0006 F8B5     		push	{r3, r4, r5, r6, r7, lr}
  48              	.LCFI0:
  49              		.cfi_def_cfa_offset 24
  50              		.cfi_offset 3, -24
  51              		.cfi_offset 4, -20
  52              		.cfi_offset 5, -16
  53              		.cfi_offset 6, -12
  54              		.cfi_offset 7, -8
  55              		.cfi_offset 14, -4
  56 0008 0C46     		mov	r4, r1
  57 000a 0546     		mov	r5, r0
  58              		.loc 1 149 23 discriminator 1 view .LVU7
  59 000c 0029     		cmp	r1, #0
  60 000e 00F09C80 		beq	.L20
 150:Drivers/STM32F4xx_HAL_Driver/Src/stm32f4xx_hal_exti.c ****   {
 151:Drivers/STM32F4xx_HAL_Driver/Src/stm32f4xx_hal_exti.c ****     return HAL_ERROR;
 152:Drivers/STM32F4xx_HAL_Driver/Src/stm32f4xx_hal_exti.c ****   }
 153:Drivers/STM32F4xx_HAL_Driver/Src/stm32f4xx_hal_exti.c **** 
 154:Drivers/STM32F4xx_HAL_Driver/Src/stm32f4xx_hal_exti.c ****   /* Check parameters */
 155:Drivers/STM32F4xx_HAL_Driver/Src/stm32f4xx_hal_exti.c ****   assert_param(IS_EXTI_LINE(pExtiConfig->Line));
  61              		.loc 1 155 3 is_stmt 1 view .LVU8
  62 0012 0A68     		ldr	r2, [r1]
  63 0014 22F0C063 		bic	r3, r2, #100663296
  64 0018 23F01F03 		bic	r3, r3, #31
  65 001c 3BB9     		cbnz	r3, .L3
  66              		.loc 1 155 3 is_stmt 0 discriminator 2 view .LVU9
  67 001e 02F0C063 		and	r3, r2, #100663296
  68 0022 B3F1007F 		cmp	r3, #33554432
  69 0026 46D0     		beq	.L4
ARM GAS  C:\Users\minhp\AppData\Local\Temp\ccWBVzXh.s 			page 5


  70              		.loc 1 155 3 discriminator 3 view .LVU10
  71 0028 B3F1C06F 		cmp	r3, #100663296
  72 002c 43D0     		beq	.L4
  73              	.L3:
  74              		.loc 1 155 3 discriminator 7 view .LVU11
  75 002e 9B21     		movs	r1, #155
  76              	.LVL1:
  77              		.loc 1 155 3 discriminator 7 view .LVU12
  78 0030 4748     		ldr	r0, .L29
  79              	.LVL2:
  80              		.loc 1 155 3 discriminator 7 view .LVU13
  81 0032 FFF7FEFF 		bl	assert_failed
  82              	.LVL3:
  83              	.L5:
 156:Drivers/STM32F4xx_HAL_Driver/Src/stm32f4xx_hal_exti.c ****   assert_param(IS_EXTI_MODE(pExtiConfig->Mode));
  84              		.loc 1 156 3 is_stmt 1 view .LVU14
  85 0036 6368     		ldr	r3, [r4, #4]
  86 0038 13F0030F 		tst	r3, #3
  87 003c 02D0     		beq	.L6
  88              		.loc 1 156 3 is_stmt 0 discriminator 2 view .LVU15
  89 003e 33F00303 		bics	r3, r3, #3
  90 0042 03D0     		beq	.L7
  91              	.L6:
  92              		.loc 1 156 3 discriminator 3 view .LVU16
  93 0044 9C21     		movs	r1, #156
  94 0046 4248     		ldr	r0, .L29
  95 0048 FFF7FEFF 		bl	assert_failed
  96              	.LVL4:
  97              	.L7:
 157:Drivers/STM32F4xx_HAL_Driver/Src/stm32f4xx_hal_exti.c **** 
 158:Drivers/STM32F4xx_HAL_Driver/Src/stm32f4xx_hal_exti.c ****   /* Assign line number to handle */
 159:Drivers/STM32F4xx_HAL_Driver/Src/stm32f4xx_hal_exti.c ****   hexti->Line = pExtiConfig->Line;
  98              		.loc 1 159 3 is_stmt 1 view .LVU17
  99              		.loc 1 159 28 is_stmt 0 view .LVU18
 100 004c 2668     		ldr	r6, [r4]
 101              		.loc 1 159 15 view .LVU19
 102 004e 2E60     		str	r6, [r5]
 160:Drivers/STM32F4xx_HAL_Driver/Src/stm32f4xx_hal_exti.c **** 
 161:Drivers/STM32F4xx_HAL_Driver/Src/stm32f4xx_hal_exti.c ****   /* Compute line mask */
 162:Drivers/STM32F4xx_HAL_Driver/Src/stm32f4xx_hal_exti.c ****   linepos = (pExtiConfig->Line & EXTI_PIN_MASK);
 103              		.loc 1 162 3 is_stmt 1 view .LVU20
 104              		.loc 1 162 11 is_stmt 0 view .LVU21
 105 0050 06F01F07 		and	r7, r6, #31
 106              	.LVL5:
 163:Drivers/STM32F4xx_HAL_Driver/Src/stm32f4xx_hal_exti.c ****   maskline = (1uL << linepos);
 107              		.loc 1 163 3 is_stmt 1 view .LVU22
 108              		.loc 1 163 12 is_stmt 0 view .LVU23
 109 0054 0125     		movs	r5, #1
 110              	.LVL6:
 111              		.loc 1 163 12 view .LVU24
 112 0056 BD40     		lsls	r5, r5, r7
 113              	.LVL7:
 164:Drivers/STM32F4xx_HAL_Driver/Src/stm32f4xx_hal_exti.c **** 
 165:Drivers/STM32F4xx_HAL_Driver/Src/stm32f4xx_hal_exti.c ****   /* Configure triggers for configurable lines */
 166:Drivers/STM32F4xx_HAL_Driver/Src/stm32f4xx_hal_exti.c ****   if ((pExtiConfig->Line & EXTI_CONFIG) != 0x00u)
 114              		.loc 1 166 3 is_stmt 1 view .LVU25
 115              		.loc 1 166 6 is_stmt 0 view .LVU26
ARM GAS  C:\Users\minhp\AppData\Local\Temp\ccWBVzXh.s 			page 6


 116 0058 16F0007F 		tst	r6, #33554432
 117 005c 19D0     		beq	.L8
 167:Drivers/STM32F4xx_HAL_Driver/Src/stm32f4xx_hal_exti.c ****   {
 168:Drivers/STM32F4xx_HAL_Driver/Src/stm32f4xx_hal_exti.c ****     assert_param(IS_EXTI_TRIGGER(pExtiConfig->Trigger));
 118              		.loc 1 168 5 is_stmt 1 view .LVU27
 119 005e A368     		ldr	r3, [r4, #8]
 120 0060 33F00303 		bics	r3, r3, #3
 121 0064 2CD1     		bne	.L25
 122              	.L9:
 169:Drivers/STM32F4xx_HAL_Driver/Src/stm32f4xx_hal_exti.c **** 
 170:Drivers/STM32F4xx_HAL_Driver/Src/stm32f4xx_hal_exti.c ****     /* Configure rising trigger */
 171:Drivers/STM32F4xx_HAL_Driver/Src/stm32f4xx_hal_exti.c ****     /* Mask or set line */
 172:Drivers/STM32F4xx_HAL_Driver/Src/stm32f4xx_hal_exti.c ****     if ((pExtiConfig->Trigger & EXTI_TRIGGER_RISING) != 0x00u)
 123              		.loc 1 172 5 view .LVU28
 124              		.loc 1 172 21 is_stmt 0 view .LVU29
 125 0066 A368     		ldr	r3, [r4, #8]
 126              		.loc 1 172 8 view .LVU30
 127 0068 13F0010F 		tst	r3, #1
 128 006c 2DD0     		beq	.L10
 173:Drivers/STM32F4xx_HAL_Driver/Src/stm32f4xx_hal_exti.c ****     {
 174:Drivers/STM32F4xx_HAL_Driver/Src/stm32f4xx_hal_exti.c ****       EXTI->RTSR |= maskline;
 129              		.loc 1 174 7 is_stmt 1 view .LVU31
 130              		.loc 1 174 18 is_stmt 0 view .LVU32
 131 006e 394A     		ldr	r2, .L29+4
 132 0070 9368     		ldr	r3, [r2, #8]
 133 0072 2B43     		orrs	r3, r3, r5
 134 0074 9360     		str	r3, [r2, #8]
 135              	.L11:
 175:Drivers/STM32F4xx_HAL_Driver/Src/stm32f4xx_hal_exti.c ****     }
 176:Drivers/STM32F4xx_HAL_Driver/Src/stm32f4xx_hal_exti.c ****     else
 177:Drivers/STM32F4xx_HAL_Driver/Src/stm32f4xx_hal_exti.c ****     {
 178:Drivers/STM32F4xx_HAL_Driver/Src/stm32f4xx_hal_exti.c ****       EXTI->RTSR &= ~maskline;
 179:Drivers/STM32F4xx_HAL_Driver/Src/stm32f4xx_hal_exti.c ****     }
 180:Drivers/STM32F4xx_HAL_Driver/Src/stm32f4xx_hal_exti.c **** 
 181:Drivers/STM32F4xx_HAL_Driver/Src/stm32f4xx_hal_exti.c ****     /* Configure falling trigger */
 182:Drivers/STM32F4xx_HAL_Driver/Src/stm32f4xx_hal_exti.c ****     /* Mask or set line */
 183:Drivers/STM32F4xx_HAL_Driver/Src/stm32f4xx_hal_exti.c ****     if ((pExtiConfig->Trigger & EXTI_TRIGGER_FALLING) != 0x00u)
 136              		.loc 1 183 5 is_stmt 1 view .LVU33
 137              		.loc 1 183 21 is_stmt 0 view .LVU34
 138 0076 A368     		ldr	r3, [r4, #8]
 139              		.loc 1 183 8 view .LVU35
 140 0078 13F0020F 		tst	r3, #2
 141 007c 2BD0     		beq	.L12
 184:Drivers/STM32F4xx_HAL_Driver/Src/stm32f4xx_hal_exti.c ****     {
 185:Drivers/STM32F4xx_HAL_Driver/Src/stm32f4xx_hal_exti.c ****       EXTI->FTSR |= maskline;
 142              		.loc 1 185 7 is_stmt 1 view .LVU36
 143              		.loc 1 185 18 is_stmt 0 view .LVU37
 144 007e 354A     		ldr	r2, .L29+4
 145 0080 D368     		ldr	r3, [r2, #12]
 146 0082 2B43     		orrs	r3, r3, r5
 147 0084 D360     		str	r3, [r2, #12]
 148              	.L13:
 186:Drivers/STM32F4xx_HAL_Driver/Src/stm32f4xx_hal_exti.c ****     }
 187:Drivers/STM32F4xx_HAL_Driver/Src/stm32f4xx_hal_exti.c ****     else
 188:Drivers/STM32F4xx_HAL_Driver/Src/stm32f4xx_hal_exti.c ****     {
 189:Drivers/STM32F4xx_HAL_Driver/Src/stm32f4xx_hal_exti.c ****       EXTI->FTSR &= ~maskline;
 190:Drivers/STM32F4xx_HAL_Driver/Src/stm32f4xx_hal_exti.c ****     }
ARM GAS  C:\Users\minhp\AppData\Local\Temp\ccWBVzXh.s 			page 7


 191:Drivers/STM32F4xx_HAL_Driver/Src/stm32f4xx_hal_exti.c **** 
 192:Drivers/STM32F4xx_HAL_Driver/Src/stm32f4xx_hal_exti.c **** 
 193:Drivers/STM32F4xx_HAL_Driver/Src/stm32f4xx_hal_exti.c ****     /* Configure gpio port selection in case of gpio exti line */
 194:Drivers/STM32F4xx_HAL_Driver/Src/stm32f4xx_hal_exti.c ****     if ((pExtiConfig->Line & EXTI_GPIO) == EXTI_GPIO)
 149              		.loc 1 194 5 is_stmt 1 view .LVU38
 150              		.loc 1 194 21 is_stmt 0 view .LVU39
 151 0086 2368     		ldr	r3, [r4]
 152              		.loc 1 194 28 view .LVU40
 153 0088 03F0C063 		and	r3, r3, #100663296
 154              		.loc 1 194 8 view .LVU41
 155 008c B3F1C06F 		cmp	r3, #100663296
 156 0090 27D0     		beq	.L26
 157              	.LVL8:
 158              	.L8:
 195:Drivers/STM32F4xx_HAL_Driver/Src/stm32f4xx_hal_exti.c ****     {
 196:Drivers/STM32F4xx_HAL_Driver/Src/stm32f4xx_hal_exti.c ****       assert_param(IS_EXTI_GPIO_PORT(pExtiConfig->GPIOSel));
 197:Drivers/STM32F4xx_HAL_Driver/Src/stm32f4xx_hal_exti.c ****       assert_param(IS_EXTI_GPIO_PIN(linepos));
 198:Drivers/STM32F4xx_HAL_Driver/Src/stm32f4xx_hal_exti.c **** 
 199:Drivers/STM32F4xx_HAL_Driver/Src/stm32f4xx_hal_exti.c ****       regval = SYSCFG->EXTICR[linepos >> 2u];
 200:Drivers/STM32F4xx_HAL_Driver/Src/stm32f4xx_hal_exti.c ****       regval &= ~(SYSCFG_EXTICR1_EXTI0 << (SYSCFG_EXTICR1_EXTI1_Pos * (linepos & 0x03u)));
 201:Drivers/STM32F4xx_HAL_Driver/Src/stm32f4xx_hal_exti.c ****       regval |= (pExtiConfig->GPIOSel << (SYSCFG_EXTICR1_EXTI1_Pos * (linepos & 0x03u)));
 202:Drivers/STM32F4xx_HAL_Driver/Src/stm32f4xx_hal_exti.c ****       SYSCFG->EXTICR[linepos >> 2u] = regval;
 203:Drivers/STM32F4xx_HAL_Driver/Src/stm32f4xx_hal_exti.c ****     }
 204:Drivers/STM32F4xx_HAL_Driver/Src/stm32f4xx_hal_exti.c ****   }
 205:Drivers/STM32F4xx_HAL_Driver/Src/stm32f4xx_hal_exti.c **** 
 206:Drivers/STM32F4xx_HAL_Driver/Src/stm32f4xx_hal_exti.c ****   /* Configure interrupt mode : read current mode */
 207:Drivers/STM32F4xx_HAL_Driver/Src/stm32f4xx_hal_exti.c ****   /* Mask or set line */
 208:Drivers/STM32F4xx_HAL_Driver/Src/stm32f4xx_hal_exti.c ****   if ((pExtiConfig->Mode & EXTI_MODE_INTERRUPT) != 0x00u)
 159              		.loc 1 208 3 is_stmt 1 view .LVU42
 160              		.loc 1 208 19 is_stmt 0 view .LVU43
 161 0092 6368     		ldr	r3, [r4, #4]
 162              		.loc 1 208 6 view .LVU44
 163 0094 13F0010F 		tst	r3, #1
 164 0098 48D0     		beq	.L16
 209:Drivers/STM32F4xx_HAL_Driver/Src/stm32f4xx_hal_exti.c ****   {
 210:Drivers/STM32F4xx_HAL_Driver/Src/stm32f4xx_hal_exti.c ****     EXTI->IMR |= maskline;
 165              		.loc 1 210 5 is_stmt 1 view .LVU45
 166              		.loc 1 210 15 is_stmt 0 view .LVU46
 167 009a 2E4A     		ldr	r2, .L29+4
 168 009c 1368     		ldr	r3, [r2]
 169 009e 2B43     		orrs	r3, r3, r5
 170 00a0 1360     		str	r3, [r2]
 171              	.L17:
 211:Drivers/STM32F4xx_HAL_Driver/Src/stm32f4xx_hal_exti.c ****   }
 212:Drivers/STM32F4xx_HAL_Driver/Src/stm32f4xx_hal_exti.c ****   else
 213:Drivers/STM32F4xx_HAL_Driver/Src/stm32f4xx_hal_exti.c ****   {
 214:Drivers/STM32F4xx_HAL_Driver/Src/stm32f4xx_hal_exti.c ****     EXTI->IMR &= ~maskline;
 215:Drivers/STM32F4xx_HAL_Driver/Src/stm32f4xx_hal_exti.c ****   }
 216:Drivers/STM32F4xx_HAL_Driver/Src/stm32f4xx_hal_exti.c **** 
 217:Drivers/STM32F4xx_HAL_Driver/Src/stm32f4xx_hal_exti.c ****   /* Configure event mode : read current mode */
 218:Drivers/STM32F4xx_HAL_Driver/Src/stm32f4xx_hal_exti.c ****   /* Mask or set line */
 219:Drivers/STM32F4xx_HAL_Driver/Src/stm32f4xx_hal_exti.c ****   if ((pExtiConfig->Mode & EXTI_MODE_EVENT) != 0x00u)
 172              		.loc 1 219 3 is_stmt 1 view .LVU47
 173              		.loc 1 219 19 is_stmt 0 view .LVU48
 174 00a2 6368     		ldr	r3, [r4, #4]
 175              		.loc 1 219 6 view .LVU49
 176 00a4 13F0020F 		tst	r3, #2
ARM GAS  C:\Users\minhp\AppData\Local\Temp\ccWBVzXh.s 			page 8


 177 00a8 46D0     		beq	.L18
 220:Drivers/STM32F4xx_HAL_Driver/Src/stm32f4xx_hal_exti.c ****   {
 221:Drivers/STM32F4xx_HAL_Driver/Src/stm32f4xx_hal_exti.c ****     EXTI->EMR |= maskline;
 178              		.loc 1 221 5 is_stmt 1 view .LVU50
 179              		.loc 1 221 15 is_stmt 0 view .LVU51
 180 00aa 2A4A     		ldr	r2, .L29+4
 181 00ac 5368     		ldr	r3, [r2, #4]
 182 00ae 1D43     		orrs	r5, r5, r3
 183              	.LVL9:
 184              		.loc 1 221 15 view .LVU52
 185 00b0 5560     		str	r5, [r2, #4]
 222:Drivers/STM32F4xx_HAL_Driver/Src/stm32f4xx_hal_exti.c ****   }
 223:Drivers/STM32F4xx_HAL_Driver/Src/stm32f4xx_hal_exti.c ****   else
 224:Drivers/STM32F4xx_HAL_Driver/Src/stm32f4xx_hal_exti.c ****   {
 225:Drivers/STM32F4xx_HAL_Driver/Src/stm32f4xx_hal_exti.c ****     EXTI->EMR &= ~maskline;
 226:Drivers/STM32F4xx_HAL_Driver/Src/stm32f4xx_hal_exti.c ****   }
 227:Drivers/STM32F4xx_HAL_Driver/Src/stm32f4xx_hal_exti.c **** 
 228:Drivers/STM32F4xx_HAL_Driver/Src/stm32f4xx_hal_exti.c ****   return HAL_OK;
 186              		.loc 1 228 10 view .LVU53
 187 00b2 0020     		movs	r0, #0
 188              	.L2:
 229:Drivers/STM32F4xx_HAL_Driver/Src/stm32f4xx_hal_exti.c **** }
 189              		.loc 1 229 1 view .LVU54
 190 00b4 F8BD     		pop	{r3, r4, r5, r6, r7, pc}
 191              	.LVL10:
 192              	.L4:
 155:Drivers/STM32F4xx_HAL_Driver/Src/stm32f4xx_hal_exti.c ****   assert_param(IS_EXTI_MODE(pExtiConfig->Mode));
 193              		.loc 1 155 3 discriminator 6 view .LVU55
 194 00b6 02F01F02 		and	r2, r2, #31
 195 00ba 162A     		cmp	r2, #22
 196 00bc BBD9     		bls	.L5
 197 00be B6E7     		b	.L3
 198              	.LVL11:
 199              	.L25:
 168:Drivers/STM32F4xx_HAL_Driver/Src/stm32f4xx_hal_exti.c **** 
 200              		.loc 1 168 5 discriminator 1 view .LVU56
 201 00c0 A821     		movs	r1, #168
 202 00c2 2348     		ldr	r0, .L29
 203 00c4 FFF7FEFF 		bl	assert_failed
 204              	.LVL12:
 205 00c8 CDE7     		b	.L9
 206              	.L10:
 178:Drivers/STM32F4xx_HAL_Driver/Src/stm32f4xx_hal_exti.c ****     }
 207              		.loc 1 178 7 is_stmt 1 view .LVU57
 178:Drivers/STM32F4xx_HAL_Driver/Src/stm32f4xx_hal_exti.c ****     }
 208              		.loc 1 178 18 is_stmt 0 view .LVU58
 209 00ca 224A     		ldr	r2, .L29+4
 210 00cc 9368     		ldr	r3, [r2, #8]
 211 00ce 23EA0503 		bic	r3, r3, r5
 212 00d2 9360     		str	r3, [r2, #8]
 213 00d4 CFE7     		b	.L11
 214              	.L12:
 189:Drivers/STM32F4xx_HAL_Driver/Src/stm32f4xx_hal_exti.c ****     }
 215              		.loc 1 189 7 is_stmt 1 view .LVU59
 189:Drivers/STM32F4xx_HAL_Driver/Src/stm32f4xx_hal_exti.c ****     }
 216              		.loc 1 189 18 is_stmt 0 view .LVU60
 217 00d6 1F4A     		ldr	r2, .L29+4
ARM GAS  C:\Users\minhp\AppData\Local\Temp\ccWBVzXh.s 			page 9


 218 00d8 D368     		ldr	r3, [r2, #12]
 219 00da 23EA0503 		bic	r3, r3, r5
 220 00de D360     		str	r3, [r2, #12]
 221 00e0 D1E7     		b	.L13
 222              	.L26:
 196:Drivers/STM32F4xx_HAL_Driver/Src/stm32f4xx_hal_exti.c ****       assert_param(IS_EXTI_GPIO_PIN(linepos));
 223              		.loc 1 196 7 is_stmt 1 view .LVU61
 224 00e2 E368     		ldr	r3, [r4, #12]
 225 00e4 042B     		cmp	r3, #4
 226 00e6 01D9     		bls	.L14
 196:Drivers/STM32F4xx_HAL_Driver/Src/stm32f4xx_hal_exti.c ****       assert_param(IS_EXTI_GPIO_PIN(linepos));
 227              		.loc 1 196 7 is_stmt 0 discriminator 1 view .LVU62
 228 00e8 072B     		cmp	r3, #7
 229 00ea 15D1     		bne	.L27
 230              	.L14:
 197:Drivers/STM32F4xx_HAL_Driver/Src/stm32f4xx_hal_exti.c **** 
 231              		.loc 1 197 7 is_stmt 1 view .LVU63
 232 00ec 16F0100F 		tst	r6, #16
 233 00f0 17D1     		bne	.L28
 234              	.L15:
 199:Drivers/STM32F4xx_HAL_Driver/Src/stm32f4xx_hal_exti.c ****       regval &= ~(SYSCFG_EXTICR1_EXTI0 << (SYSCFG_EXTICR1_EXTI1_Pos * (linepos & 0x03u)));
 235              		.loc 1 199 7 view .LVU64
 199:Drivers/STM32F4xx_HAL_Driver/Src/stm32f4xx_hal_exti.c ****       regval &= ~(SYSCFG_EXTICR1_EXTI0 << (SYSCFG_EXTICR1_EXTI1_Pos * (linepos & 0x03u)));
 236              		.loc 1 199 39 is_stmt 0 view .LVU65
 237 00f2 BF08     		lsrs	r7, r7, #2
 238              	.LVL13:
 199:Drivers/STM32F4xx_HAL_Driver/Src/stm32f4xx_hal_exti.c ****       regval &= ~(SYSCFG_EXTICR1_EXTI0 << (SYSCFG_EXTICR1_EXTI1_Pos * (linepos & 0x03u)));
 239              		.loc 1 199 14 view .LVU66
 240 00f4 1849     		ldr	r1, .L29+8
 241 00f6 0237     		adds	r7, r7, #2
 242 00f8 51F82720 		ldr	r2, [r1, r7, lsl #2]
 243              	.LVL14:
 200:Drivers/STM32F4xx_HAL_Driver/Src/stm32f4xx_hal_exti.c ****       regval |= (pExtiConfig->GPIOSel << (SYSCFG_EXTICR1_EXTI1_Pos * (linepos & 0x03u)));
 244              		.loc 1 200 7 is_stmt 1 view .LVU67
 200:Drivers/STM32F4xx_HAL_Driver/Src/stm32f4xx_hal_exti.c ****       regval |= (pExtiConfig->GPIOSel << (SYSCFG_EXTICR1_EXTI1_Pos * (linepos & 0x03u)));
 245              		.loc 1 200 80 is_stmt 0 view .LVU68
 246 00fc 06F00306 		and	r6, r6, #3
 247              	.LVL15:
 200:Drivers/STM32F4xx_HAL_Driver/Src/stm32f4xx_hal_exti.c ****       regval |= (pExtiConfig->GPIOSel << (SYSCFG_EXTICR1_EXTI1_Pos * (linepos & 0x03u)));
 248              		.loc 1 200 69 view .LVU69
 249 0100 B600     		lsls	r6, r6, #2
 200:Drivers/STM32F4xx_HAL_Driver/Src/stm32f4xx_hal_exti.c ****       regval |= (pExtiConfig->GPIOSel << (SYSCFG_EXTICR1_EXTI1_Pos * (linepos & 0x03u)));
 250              		.loc 1 200 40 view .LVU70
 251 0102 0F23     		movs	r3, #15
 252 0104 B340     		lsls	r3, r3, r6
 200:Drivers/STM32F4xx_HAL_Driver/Src/stm32f4xx_hal_exti.c ****       regval |= (pExtiConfig->GPIOSel << (SYSCFG_EXTICR1_EXTI1_Pos * (linepos & 0x03u)));
 253              		.loc 1 200 14 view .LVU71
 254 0106 22EA0302 		bic	r2, r2, r3
 255              	.LVL16:
 201:Drivers/STM32F4xx_HAL_Driver/Src/stm32f4xx_hal_exti.c ****       SYSCFG->EXTICR[linepos >> 2u] = regval;
 256              		.loc 1 201 7 is_stmt 1 view .LVU72
 201:Drivers/STM32F4xx_HAL_Driver/Src/stm32f4xx_hal_exti.c ****       SYSCFG->EXTICR[linepos >> 2u] = regval;
 257              		.loc 1 201 29 is_stmt 0 view .LVU73
 258 010a E368     		ldr	r3, [r4, #12]
 201:Drivers/STM32F4xx_HAL_Driver/Src/stm32f4xx_hal_exti.c ****       SYSCFG->EXTICR[linepos >> 2u] = regval;
 259              		.loc 1 201 39 view .LVU74
 260 010c 03FA06F6 		lsl	r6, r3, r6
ARM GAS  C:\Users\minhp\AppData\Local\Temp\ccWBVzXh.s 			page 10


 201:Drivers/STM32F4xx_HAL_Driver/Src/stm32f4xx_hal_exti.c ****       SYSCFG->EXTICR[linepos >> 2u] = regval;
 261              		.loc 1 201 14 view .LVU75
 262 0110 1643     		orrs	r6, r6, r2
 263              	.LVL17:
 202:Drivers/STM32F4xx_HAL_Driver/Src/stm32f4xx_hal_exti.c ****     }
 264              		.loc 1 202 7 is_stmt 1 view .LVU76
 202:Drivers/STM32F4xx_HAL_Driver/Src/stm32f4xx_hal_exti.c ****     }
 265              		.loc 1 202 37 is_stmt 0 view .LVU77
 266 0112 41F82760 		str	r6, [r1, r7, lsl #2]
 267 0116 BCE7     		b	.L8
 268              	.LVL18:
 269              	.L27:
 196:Drivers/STM32F4xx_HAL_Driver/Src/stm32f4xx_hal_exti.c ****       assert_param(IS_EXTI_GPIO_PIN(linepos));
 270              		.loc 1 196 7 discriminator 2 view .LVU78
 271 0118 C421     		movs	r1, #196
 272 011a 0D48     		ldr	r0, .L29
 273 011c FFF7FEFF 		bl	assert_failed
 274              	.LVL19:
 275 0120 E4E7     		b	.L14
 276              	.L28:
 197:Drivers/STM32F4xx_HAL_Driver/Src/stm32f4xx_hal_exti.c **** 
 277              		.loc 1 197 7 discriminator 1 view .LVU79
 278 0122 C521     		movs	r1, #197
 279 0124 0A48     		ldr	r0, .L29
 280 0126 FFF7FEFF 		bl	assert_failed
 281              	.LVL20:
 282 012a E2E7     		b	.L15
 283              	.LVL21:
 284              	.L16:
 214:Drivers/STM32F4xx_HAL_Driver/Src/stm32f4xx_hal_exti.c ****   }
 285              		.loc 1 214 5 is_stmt 1 view .LVU80
 214:Drivers/STM32F4xx_HAL_Driver/Src/stm32f4xx_hal_exti.c ****   }
 286              		.loc 1 214 15 is_stmt 0 view .LVU81
 287 012c 094A     		ldr	r2, .L29+4
 288 012e 1368     		ldr	r3, [r2]
 289 0130 23EA0503 		bic	r3, r3, r5
 290 0134 1360     		str	r3, [r2]
 291 0136 B4E7     		b	.L17
 292              	.L18:
 225:Drivers/STM32F4xx_HAL_Driver/Src/stm32f4xx_hal_exti.c ****   }
 293              		.loc 1 225 5 is_stmt 1 view .LVU82
 225:Drivers/STM32F4xx_HAL_Driver/Src/stm32f4xx_hal_exti.c ****   }
 294              		.loc 1 225 15 is_stmt 0 view .LVU83
 295 0138 064A     		ldr	r2, .L29+4
 296 013a 5368     		ldr	r3, [r2, #4]
 297 013c 23EA0505 		bic	r5, r3, r5
 298              	.LVL22:
 225:Drivers/STM32F4xx_HAL_Driver/Src/stm32f4xx_hal_exti.c ****   }
 299              		.loc 1 225 15 view .LVU84
 300 0140 5560     		str	r5, [r2, #4]
 228:Drivers/STM32F4xx_HAL_Driver/Src/stm32f4xx_hal_exti.c **** }
 301              		.loc 1 228 10 view .LVU85
 302 0142 0020     		movs	r0, #0
 303 0144 B6E7     		b	.L2
 304              	.LVL23:
 305              	.L19:
 306              	.LCFI1:
ARM GAS  C:\Users\minhp\AppData\Local\Temp\ccWBVzXh.s 			page 11


 307              		.cfi_def_cfa_offset 0
 308              		.cfi_restore 3
 309              		.cfi_restore 4
 310              		.cfi_restore 5
 311              		.cfi_restore 6
 312              		.cfi_restore 7
 313              		.cfi_restore 14
 151:Drivers/STM32F4xx_HAL_Driver/Src/stm32f4xx_hal_exti.c ****   }
 314              		.loc 1 151 12 view .LVU86
 315 0146 0120     		movs	r0, #1
 316              	.LVL24:
 317              		.loc 1 229 1 view .LVU87
 318 0148 7047     		bx	lr
 319              	.LVL25:
 320              	.L20:
 321              	.LCFI2:
 322              		.cfi_def_cfa_offset 24
 323              		.cfi_offset 3, -24
 324              		.cfi_offset 4, -20
 325              		.cfi_offset 5, -16
 326              		.cfi_offset 6, -12
 327              		.cfi_offset 7, -8
 328              		.cfi_offset 14, -4
 151:Drivers/STM32F4xx_HAL_Driver/Src/stm32f4xx_hal_exti.c ****   }
 329              		.loc 1 151 12 view .LVU88
 330 014a 0120     		movs	r0, #1
 331              	.LVL26:
 151:Drivers/STM32F4xx_HAL_Driver/Src/stm32f4xx_hal_exti.c ****   }
 332              		.loc 1 151 12 view .LVU89
 333 014c B2E7     		b	.L2
 334              	.L30:
 335 014e 00BF     		.align	2
 336              	.L29:
 337 0150 00000000 		.word	.LC0
 338 0154 003C0140 		.word	1073822720
 339 0158 00380140 		.word	1073821696
 340              		.cfi_endproc
 341              	.LFE130:
 343              		.section	.text.HAL_EXTI_GetConfigLine,"ax",%progbits
 344              		.align	1
 345              		.global	HAL_EXTI_GetConfigLine
 346              		.syntax unified
 347              		.thumb
 348              		.thumb_func
 350              	HAL_EXTI_GetConfigLine:
 351              	.LVL27:
 352              	.LFB131:
 230:Drivers/STM32F4xx_HAL_Driver/Src/stm32f4xx_hal_exti.c **** 
 231:Drivers/STM32F4xx_HAL_Driver/Src/stm32f4xx_hal_exti.c **** /**
 232:Drivers/STM32F4xx_HAL_Driver/Src/stm32f4xx_hal_exti.c ****   * @brief  Get configuration of a dedicated Exti line.
 233:Drivers/STM32F4xx_HAL_Driver/Src/stm32f4xx_hal_exti.c ****   * @param  hexti Exti handle.
 234:Drivers/STM32F4xx_HAL_Driver/Src/stm32f4xx_hal_exti.c ****   * @param  pExtiConfig Pointer on structure to store Exti configuration.
 235:Drivers/STM32F4xx_HAL_Driver/Src/stm32f4xx_hal_exti.c ****   * @retval HAL Status.
 236:Drivers/STM32F4xx_HAL_Driver/Src/stm32f4xx_hal_exti.c ****   */
 237:Drivers/STM32F4xx_HAL_Driver/Src/stm32f4xx_hal_exti.c **** HAL_StatusTypeDef HAL_EXTI_GetConfigLine(EXTI_HandleTypeDef *hexti, EXTI_ConfigTypeDef *pExtiConfig
 238:Drivers/STM32F4xx_HAL_Driver/Src/stm32f4xx_hal_exti.c **** {
 353              		.loc 1 238 1 is_stmt 1 view -0
ARM GAS  C:\Users\minhp\AppData\Local\Temp\ccWBVzXh.s 			page 12


 354              		.cfi_startproc
 355              		@ args = 0, pretend = 0, frame = 0
 356              		@ frame_needed = 0, uses_anonymous_args = 0
 239:Drivers/STM32F4xx_HAL_Driver/Src/stm32f4xx_hal_exti.c ****   uint32_t regval;
 357              		.loc 1 239 3 view .LVU91
 240:Drivers/STM32F4xx_HAL_Driver/Src/stm32f4xx_hal_exti.c ****   uint32_t linepos;
 358              		.loc 1 240 3 view .LVU92
 241:Drivers/STM32F4xx_HAL_Driver/Src/stm32f4xx_hal_exti.c ****   uint32_t maskline;
 359              		.loc 1 241 3 view .LVU93
 242:Drivers/STM32F4xx_HAL_Driver/Src/stm32f4xx_hal_exti.c **** 
 243:Drivers/STM32F4xx_HAL_Driver/Src/stm32f4xx_hal_exti.c ****   /* Check null pointer */
 244:Drivers/STM32F4xx_HAL_Driver/Src/stm32f4xx_hal_exti.c ****   if ((hexti == NULL) || (pExtiConfig == NULL))
 360              		.loc 1 244 3 view .LVU94
 361              		.loc 1 244 6 is_stmt 0 view .LVU95
 362 0000 0028     		cmp	r0, #0
 363 0002 66D0     		beq	.L42
 238:Drivers/STM32F4xx_HAL_Driver/Src/stm32f4xx_hal_exti.c ****   uint32_t regval;
 364              		.loc 1 238 1 discriminator 1 view .LVU96
 365 0004 38B5     		push	{r3, r4, r5, lr}
 366              	.LCFI3:
 367              		.cfi_def_cfa_offset 16
 368              		.cfi_offset 3, -16
 369              		.cfi_offset 4, -12
 370              		.cfi_offset 5, -8
 371              		.cfi_offset 14, -4
 372 0006 0C46     		mov	r4, r1
 373 0008 0546     		mov	r5, r0
 374              		.loc 1 244 23 discriminator 1 view .LVU97
 375 000a 0029     		cmp	r1, #0
 376 000c 63D0     		beq	.L43
 245:Drivers/STM32F4xx_HAL_Driver/Src/stm32f4xx_hal_exti.c ****   {
 246:Drivers/STM32F4xx_HAL_Driver/Src/stm32f4xx_hal_exti.c ****     return HAL_ERROR;
 247:Drivers/STM32F4xx_HAL_Driver/Src/stm32f4xx_hal_exti.c ****   }
 248:Drivers/STM32F4xx_HAL_Driver/Src/stm32f4xx_hal_exti.c **** 
 249:Drivers/STM32F4xx_HAL_Driver/Src/stm32f4xx_hal_exti.c ****   /* Check the parameter */
 250:Drivers/STM32F4xx_HAL_Driver/Src/stm32f4xx_hal_exti.c ****   assert_param(IS_EXTI_LINE(hexti->Line));
 377              		.loc 1 250 3 is_stmt 1 view .LVU98
 378 000e 0268     		ldr	r2, [r0]
 379 0010 22F0C063 		bic	r3, r2, #100663296
 380 0014 23F01F03 		bic	r3, r3, #31
 381 0018 3BB9     		cbnz	r3, .L33
 382              		.loc 1 250 3 is_stmt 0 discriminator 2 view .LVU99
 383 001a 02F0C063 		and	r3, r2, #100663296
 384 001e B3F1007F 		cmp	r3, #33554432
 385 0022 35D0     		beq	.L34
 386              		.loc 1 250 3 discriminator 3 view .LVU100
 387 0024 B3F1C06F 		cmp	r3, #100663296
 388 0028 32D0     		beq	.L34
 389              	.L33:
 390              		.loc 1 250 3 discriminator 7 view .LVU101
 391 002a FA21     		movs	r1, #250
 392              	.LVL28:
 393              		.loc 1 250 3 discriminator 7 view .LVU102
 394 002c 2C48     		ldr	r0, .L52
 395              	.LVL29:
 396              		.loc 1 250 3 discriminator 7 view .LVU103
 397 002e FFF7FEFF 		bl	assert_failed
ARM GAS  C:\Users\minhp\AppData\Local\Temp\ccWBVzXh.s 			page 13


 398              	.LVL30:
 399              	.L35:
 251:Drivers/STM32F4xx_HAL_Driver/Src/stm32f4xx_hal_exti.c **** 
 252:Drivers/STM32F4xx_HAL_Driver/Src/stm32f4xx_hal_exti.c ****   /* Store handle line number to configuration structure */
 253:Drivers/STM32F4xx_HAL_Driver/Src/stm32f4xx_hal_exti.c ****   pExtiConfig->Line = hexti->Line;
 400              		.loc 1 253 3 is_stmt 1 view .LVU104
 401              		.loc 1 253 28 is_stmt 0 view .LVU105
 402 0032 2968     		ldr	r1, [r5]
 403              		.loc 1 253 21 view .LVU106
 404 0034 2160     		str	r1, [r4]
 254:Drivers/STM32F4xx_HAL_Driver/Src/stm32f4xx_hal_exti.c **** 
 255:Drivers/STM32F4xx_HAL_Driver/Src/stm32f4xx_hal_exti.c ****   /* Compute line mask */
 256:Drivers/STM32F4xx_HAL_Driver/Src/stm32f4xx_hal_exti.c ****   linepos = (pExtiConfig->Line & EXTI_PIN_MASK);
 405              		.loc 1 256 3 is_stmt 1 view .LVU107
 406              		.loc 1 256 11 is_stmt 0 view .LVU108
 407 0036 01F01F05 		and	r5, r1, #31
 408              	.LVL31:
 257:Drivers/STM32F4xx_HAL_Driver/Src/stm32f4xx_hal_exti.c ****   maskline = (1uL << linepos);
 409              		.loc 1 257 3 is_stmt 1 view .LVU109
 410              		.loc 1 257 12 is_stmt 0 view .LVU110
 411 003a 0123     		movs	r3, #1
 412 003c AB40     		lsls	r3, r3, r5
 413              	.LVL32:
 258:Drivers/STM32F4xx_HAL_Driver/Src/stm32f4xx_hal_exti.c **** 
 259:Drivers/STM32F4xx_HAL_Driver/Src/stm32f4xx_hal_exti.c ****   /* 1] Get core mode : interrupt */
 260:Drivers/STM32F4xx_HAL_Driver/Src/stm32f4xx_hal_exti.c **** 
 261:Drivers/STM32F4xx_HAL_Driver/Src/stm32f4xx_hal_exti.c ****   /* Check if selected line is enable */
 262:Drivers/STM32F4xx_HAL_Driver/Src/stm32f4xx_hal_exti.c ****   if ((EXTI->IMR & maskline) != 0x00u)
 414              		.loc 1 262 3 is_stmt 1 view .LVU111
 415              		.loc 1 262 12 is_stmt 0 view .LVU112
 416 003e 294A     		ldr	r2, .L52+4
 417 0040 1268     		ldr	r2, [r2]
 418              		.loc 1 262 6 view .LVU113
 419 0042 1A42     		tst	r2, r3
 420 0044 29D0     		beq	.L36
 263:Drivers/STM32F4xx_HAL_Driver/Src/stm32f4xx_hal_exti.c ****   {
 264:Drivers/STM32F4xx_HAL_Driver/Src/stm32f4xx_hal_exti.c ****     pExtiConfig->Mode = EXTI_MODE_INTERRUPT;
 421              		.loc 1 264 5 is_stmt 1 view .LVU114
 422              		.loc 1 264 23 is_stmt 0 view .LVU115
 423 0046 0122     		movs	r2, #1
 424 0048 6260     		str	r2, [r4, #4]
 425              	.L37:
 265:Drivers/STM32F4xx_HAL_Driver/Src/stm32f4xx_hal_exti.c ****   }
 266:Drivers/STM32F4xx_HAL_Driver/Src/stm32f4xx_hal_exti.c ****   else
 267:Drivers/STM32F4xx_HAL_Driver/Src/stm32f4xx_hal_exti.c ****   {
 268:Drivers/STM32F4xx_HAL_Driver/Src/stm32f4xx_hal_exti.c ****     pExtiConfig->Mode = EXTI_MODE_NONE;
 269:Drivers/STM32F4xx_HAL_Driver/Src/stm32f4xx_hal_exti.c ****   }
 270:Drivers/STM32F4xx_HAL_Driver/Src/stm32f4xx_hal_exti.c **** 
 271:Drivers/STM32F4xx_HAL_Driver/Src/stm32f4xx_hal_exti.c ****   /* Get event mode */
 272:Drivers/STM32F4xx_HAL_Driver/Src/stm32f4xx_hal_exti.c ****   /* Check if selected line is enable */
 273:Drivers/STM32F4xx_HAL_Driver/Src/stm32f4xx_hal_exti.c ****   if ((EXTI->EMR & maskline) != 0x00u)
 426              		.loc 1 273 3 is_stmt 1 view .LVU116
 427              		.loc 1 273 12 is_stmt 0 view .LVU117
 428 004a 264A     		ldr	r2, .L52+4
 429 004c 5268     		ldr	r2, [r2, #4]
 430              		.loc 1 273 6 view .LVU118
 431 004e 1A42     		tst	r2, r3
ARM GAS  C:\Users\minhp\AppData\Local\Temp\ccWBVzXh.s 			page 14


 432 0050 03D0     		beq	.L38
 274:Drivers/STM32F4xx_HAL_Driver/Src/stm32f4xx_hal_exti.c ****   {
 275:Drivers/STM32F4xx_HAL_Driver/Src/stm32f4xx_hal_exti.c ****     pExtiConfig->Mode |= EXTI_MODE_EVENT;
 433              		.loc 1 275 5 is_stmt 1 view .LVU119
 434              		.loc 1 275 23 is_stmt 0 view .LVU120
 435 0052 6268     		ldr	r2, [r4, #4]
 436 0054 42F00202 		orr	r2, r2, #2
 437 0058 6260     		str	r2, [r4, #4]
 438              	.L38:
 276:Drivers/STM32F4xx_HAL_Driver/Src/stm32f4xx_hal_exti.c ****   }
 277:Drivers/STM32F4xx_HAL_Driver/Src/stm32f4xx_hal_exti.c **** 
 278:Drivers/STM32F4xx_HAL_Driver/Src/stm32f4xx_hal_exti.c ****   /* Get default Trigger and GPIOSel configuration */
 279:Drivers/STM32F4xx_HAL_Driver/Src/stm32f4xx_hal_exti.c ****   pExtiConfig->Trigger = EXTI_TRIGGER_NONE;
 439              		.loc 1 279 3 is_stmt 1 view .LVU121
 440              		.loc 1 279 24 is_stmt 0 view .LVU122
 441 005a 0022     		movs	r2, #0
 442 005c A260     		str	r2, [r4, #8]
 280:Drivers/STM32F4xx_HAL_Driver/Src/stm32f4xx_hal_exti.c ****   pExtiConfig->GPIOSel = 0x00u;
 443              		.loc 1 280 3 is_stmt 1 view .LVU123
 444              		.loc 1 280 24 is_stmt 0 view .LVU124
 445 005e E260     		str	r2, [r4, #12]
 281:Drivers/STM32F4xx_HAL_Driver/Src/stm32f4xx_hal_exti.c **** 
 282:Drivers/STM32F4xx_HAL_Driver/Src/stm32f4xx_hal_exti.c ****   /* 2] Get trigger for configurable lines : rising */
 283:Drivers/STM32F4xx_HAL_Driver/Src/stm32f4xx_hal_exti.c ****   if ((pExtiConfig->Line & EXTI_CONFIG) != 0x00u)
 446              		.loc 1 283 3 is_stmt 1 view .LVU125
 447              		.loc 1 283 6 is_stmt 0 view .LVU126
 448 0060 11F0007F 		tst	r1, #33554432
 449 0064 39D0     		beq	.L44
 284:Drivers/STM32F4xx_HAL_Driver/Src/stm32f4xx_hal_exti.c ****   {
 285:Drivers/STM32F4xx_HAL_Driver/Src/stm32f4xx_hal_exti.c ****     /* Check if configuration of selected line is enable */
 286:Drivers/STM32F4xx_HAL_Driver/Src/stm32f4xx_hal_exti.c ****     if ((EXTI->RTSR & maskline) != 0x00u)
 450              		.loc 1 286 5 is_stmt 1 view .LVU127
 451              		.loc 1 286 14 is_stmt 0 view .LVU128
 452 0066 1F4A     		ldr	r2, .L52+4
 453 0068 9268     		ldr	r2, [r2, #8]
 454              		.loc 1 286 8 view .LVU129
 455 006a 1A42     		tst	r2, r3
 456 006c 01D0     		beq	.L39
 287:Drivers/STM32F4xx_HAL_Driver/Src/stm32f4xx_hal_exti.c ****     {
 288:Drivers/STM32F4xx_HAL_Driver/Src/stm32f4xx_hal_exti.c ****       pExtiConfig->Trigger = EXTI_TRIGGER_RISING;
 457              		.loc 1 288 7 is_stmt 1 view .LVU130
 458              		.loc 1 288 28 is_stmt 0 view .LVU131
 459 006e 0122     		movs	r2, #1
 460 0070 A260     		str	r2, [r4, #8]
 461              	.L39:
 289:Drivers/STM32F4xx_HAL_Driver/Src/stm32f4xx_hal_exti.c ****     }
 290:Drivers/STM32F4xx_HAL_Driver/Src/stm32f4xx_hal_exti.c **** 
 291:Drivers/STM32F4xx_HAL_Driver/Src/stm32f4xx_hal_exti.c ****     /* Get falling configuration */
 292:Drivers/STM32F4xx_HAL_Driver/Src/stm32f4xx_hal_exti.c ****     /* Check if configuration of selected line is enable */
 293:Drivers/STM32F4xx_HAL_Driver/Src/stm32f4xx_hal_exti.c ****     if ((EXTI->FTSR & maskline) != 0x00u)
 462              		.loc 1 293 5 is_stmt 1 view .LVU132
 463              		.loc 1 293 14 is_stmt 0 view .LVU133
 464 0072 1C4A     		ldr	r2, .L52+4
 465 0074 D268     		ldr	r2, [r2, #12]
 466              		.loc 1 293 8 view .LVU134
 467 0076 1A42     		tst	r2, r3
 468 0078 03D0     		beq	.L40
ARM GAS  C:\Users\minhp\AppData\Local\Temp\ccWBVzXh.s 			page 15


 294:Drivers/STM32F4xx_HAL_Driver/Src/stm32f4xx_hal_exti.c ****     {
 295:Drivers/STM32F4xx_HAL_Driver/Src/stm32f4xx_hal_exti.c ****       pExtiConfig->Trigger |= EXTI_TRIGGER_FALLING;
 469              		.loc 1 295 7 is_stmt 1 view .LVU135
 470              		.loc 1 295 28 is_stmt 0 view .LVU136
 471 007a A368     		ldr	r3, [r4, #8]
 472              	.LVL33:
 473              		.loc 1 295 28 view .LVU137
 474 007c 43F00203 		orr	r3, r3, #2
 475 0080 A360     		str	r3, [r4, #8]
 476              	.L40:
 296:Drivers/STM32F4xx_HAL_Driver/Src/stm32f4xx_hal_exti.c ****     }
 297:Drivers/STM32F4xx_HAL_Driver/Src/stm32f4xx_hal_exti.c **** 
 298:Drivers/STM32F4xx_HAL_Driver/Src/stm32f4xx_hal_exti.c ****     /* Get Gpio port selection for gpio lines */
 299:Drivers/STM32F4xx_HAL_Driver/Src/stm32f4xx_hal_exti.c ****     if ((pExtiConfig->Line & EXTI_GPIO) == EXTI_GPIO)
 477              		.loc 1 299 5 is_stmt 1 view .LVU138
 478              		.loc 1 299 28 is_stmt 0 view .LVU139
 479 0082 01F0C063 		and	r3, r1, #100663296
 480              		.loc 1 299 8 view .LVU140
 481 0086 B3F1C06F 		cmp	r3, #100663296
 482 008a 09D0     		beq	.L50
 300:Drivers/STM32F4xx_HAL_Driver/Src/stm32f4xx_hal_exti.c ****     {
 301:Drivers/STM32F4xx_HAL_Driver/Src/stm32f4xx_hal_exti.c ****       assert_param(IS_EXTI_GPIO_PIN(linepos));
 302:Drivers/STM32F4xx_HAL_Driver/Src/stm32f4xx_hal_exti.c **** 
 303:Drivers/STM32F4xx_HAL_Driver/Src/stm32f4xx_hal_exti.c ****       regval = (SYSCFG->EXTICR[linepos >> 2u] << 16u );
 304:Drivers/STM32F4xx_HAL_Driver/Src/stm32f4xx_hal_exti.c ****       pExtiConfig->GPIOSel = ((regval << (SYSCFG_EXTICR1_EXTI1_Pos * (3uL - (linepos & 0x03u)))) >>
 305:Drivers/STM32F4xx_HAL_Driver/Src/stm32f4xx_hal_exti.c ****     }
 306:Drivers/STM32F4xx_HAL_Driver/Src/stm32f4xx_hal_exti.c ****   }
 307:Drivers/STM32F4xx_HAL_Driver/Src/stm32f4xx_hal_exti.c **** 
 308:Drivers/STM32F4xx_HAL_Driver/Src/stm32f4xx_hal_exti.c ****   return HAL_OK;
 483              		.loc 1 308 10 view .LVU141
 484 008c 0020     		movs	r0, #0
 485 008e 25E0     		b	.L32
 486              	.LVL34:
 487              	.L34:
 250:Drivers/STM32F4xx_HAL_Driver/Src/stm32f4xx_hal_exti.c **** 
 488              		.loc 1 250 3 discriminator 6 view .LVU142
 489 0090 02F01F02 		and	r2, r2, #31
 490 0094 162A     		cmp	r2, #22
 491 0096 CCD9     		bls	.L35
 492 0098 C7E7     		b	.L33
 493              	.LVL35:
 494              	.L36:
 268:Drivers/STM32F4xx_HAL_Driver/Src/stm32f4xx_hal_exti.c ****   }
 495              		.loc 1 268 5 is_stmt 1 view .LVU143
 268:Drivers/STM32F4xx_HAL_Driver/Src/stm32f4xx_hal_exti.c ****   }
 496              		.loc 1 268 23 is_stmt 0 view .LVU144
 497 009a 0022     		movs	r2, #0
 498 009c 6260     		str	r2, [r4, #4]
 499 009e D4E7     		b	.L37
 500              	.LVL36:
 501              	.L50:
 301:Drivers/STM32F4xx_HAL_Driver/Src/stm32f4xx_hal_exti.c **** 
 502              		.loc 1 301 7 is_stmt 1 view .LVU145
 503 00a0 11F0100F 		tst	r1, #16
 504 00a4 0FD1     		bne	.L51
 505              	.L41:
 303:Drivers/STM32F4xx_HAL_Driver/Src/stm32f4xx_hal_exti.c ****       pExtiConfig->GPIOSel = ((regval << (SYSCFG_EXTICR1_EXTI1_Pos * (3uL - (linepos & 0x03u)))) >>
ARM GAS  C:\Users\minhp\AppData\Local\Temp\ccWBVzXh.s 			page 16


 506              		.loc 1 303 7 view .LVU146
 303:Drivers/STM32F4xx_HAL_Driver/Src/stm32f4xx_hal_exti.c ****       pExtiConfig->GPIOSel = ((regval << (SYSCFG_EXTICR1_EXTI1_Pos * (3uL - (linepos & 0x03u)))) >>
 507              		.loc 1 303 40 is_stmt 0 view .LVU147
 508 00a6 AB08     		lsrs	r3, r5, #2
 303:Drivers/STM32F4xx_HAL_Driver/Src/stm32f4xx_hal_exti.c ****       pExtiConfig->GPIOSel = ((regval << (SYSCFG_EXTICR1_EXTI1_Pos * (3uL - (linepos & 0x03u)))) >>
 509              		.loc 1 303 31 view .LVU148
 510 00a8 0233     		adds	r3, r3, #2
 511 00aa 0F4A     		ldr	r2, .L52+8
 512 00ac 52F82330 		ldr	r3, [r2, r3, lsl #2]
 303:Drivers/STM32F4xx_HAL_Driver/Src/stm32f4xx_hal_exti.c ****       pExtiConfig->GPIOSel = ((regval << (SYSCFG_EXTICR1_EXTI1_Pos * (3uL - (linepos & 0x03u)))) >>
 513              		.loc 1 303 14 view .LVU149
 514 00b0 1B04     		lsls	r3, r3, #16
 515              	.LVL37:
 304:Drivers/STM32F4xx_HAL_Driver/Src/stm32f4xx_hal_exti.c ****     }
 516              		.loc 1 304 7 is_stmt 1 view .LVU150
 304:Drivers/STM32F4xx_HAL_Driver/Src/stm32f4xx_hal_exti.c ****     }
 517              		.loc 1 304 75 is_stmt 0 view .LVU151
 518 00b2 ED43     		mvns	r5, r5
 519              	.LVL38:
 304:Drivers/STM32F4xx_HAL_Driver/Src/stm32f4xx_hal_exti.c ****     }
 520              		.loc 1 304 75 view .LVU152
 521 00b4 05F00305 		and	r5, r5, #3
 522              	.LVL39:
 304:Drivers/STM32F4xx_HAL_Driver/Src/stm32f4xx_hal_exti.c ****     }
 523              		.loc 1 304 68 view .LVU153
 524 00b8 AD00     		lsls	r5, r5, #2
 304:Drivers/STM32F4xx_HAL_Driver/Src/stm32f4xx_hal_exti.c ****     }
 525              		.loc 1 304 39 view .LVU154
 526 00ba 03FA05F5 		lsl	r5, r3, r5
 304:Drivers/STM32F4xx_HAL_Driver/Src/stm32f4xx_hal_exti.c ****     }
 527              		.loc 1 304 98 view .LVU155
 528 00be 2D0F     		lsrs	r5, r5, #28
 304:Drivers/STM32F4xx_HAL_Driver/Src/stm32f4xx_hal_exti.c ****     }
 529              		.loc 1 304 28 view .LVU156
 530 00c0 E560     		str	r5, [r4, #12]
 531              		.loc 1 308 10 view .LVU157
 532 00c2 0020     		movs	r0, #0
 533 00c4 0AE0     		b	.L32
 534              	.LVL40:
 535              	.L51:
 301:Drivers/STM32F4xx_HAL_Driver/Src/stm32f4xx_hal_exti.c **** 
 536              		.loc 1 301 7 discriminator 1 view .LVU158
 537 00c6 40F22D11 		movw	r1, #301
 538 00ca 0548     		ldr	r0, .L52
 539 00cc FFF7FEFF 		bl	assert_failed
 540              	.LVL41:
 541 00d0 E9E7     		b	.L41
 542              	.LVL42:
 543              	.L42:
 544              	.LCFI4:
 545              		.cfi_def_cfa_offset 0
 546              		.cfi_restore 3
 547              		.cfi_restore 4
 548              		.cfi_restore 5
 549              		.cfi_restore 14
 246:Drivers/STM32F4xx_HAL_Driver/Src/stm32f4xx_hal_exti.c ****   }
 550              		.loc 1 246 12 view .LVU159
ARM GAS  C:\Users\minhp\AppData\Local\Temp\ccWBVzXh.s 			page 17


 551 00d2 0120     		movs	r0, #1
 552              	.LVL43:
 309:Drivers/STM32F4xx_HAL_Driver/Src/stm32f4xx_hal_exti.c **** }
 553              		.loc 1 309 1 view .LVU160
 554 00d4 7047     		bx	lr
 555              	.LVL44:
 556              	.L43:
 557              	.LCFI5:
 558              		.cfi_def_cfa_offset 16
 559              		.cfi_offset 3, -16
 560              		.cfi_offset 4, -12
 561              		.cfi_offset 5, -8
 562              		.cfi_offset 14, -4
 246:Drivers/STM32F4xx_HAL_Driver/Src/stm32f4xx_hal_exti.c ****   }
 563              		.loc 1 246 12 view .LVU161
 564 00d6 0120     		movs	r0, #1
 565              	.LVL45:
 246:Drivers/STM32F4xx_HAL_Driver/Src/stm32f4xx_hal_exti.c ****   }
 566              		.loc 1 246 12 view .LVU162
 567 00d8 00E0     		b	.L32
 568              	.LVL46:
 569              	.L44:
 308:Drivers/STM32F4xx_HAL_Driver/Src/stm32f4xx_hal_exti.c **** }
 570              		.loc 1 308 10 view .LVU163
 571 00da 0020     		movs	r0, #0
 572              	.LVL47:
 573              	.L32:
 574              		.loc 1 309 1 view .LVU164
 575 00dc 38BD     		pop	{r3, r4, r5, pc}
 576              	.LVL48:
 577              	.L53:
 578              		.loc 1 309 1 view .LVU165
 579 00de 00BF     		.align	2
 580              	.L52:
 581 00e0 00000000 		.word	.LC0
 582 00e4 003C0140 		.word	1073822720
 583 00e8 00380140 		.word	1073821696
 584              		.cfi_endproc
 585              	.LFE131:
 587              		.section	.text.HAL_EXTI_ClearConfigLine,"ax",%progbits
 588              		.align	1
 589              		.global	HAL_EXTI_ClearConfigLine
 590              		.syntax unified
 591              		.thumb
 592              		.thumb_func
 594              	HAL_EXTI_ClearConfigLine:
 595              	.LVL49:
 596              	.LFB132:
 310:Drivers/STM32F4xx_HAL_Driver/Src/stm32f4xx_hal_exti.c **** 
 311:Drivers/STM32F4xx_HAL_Driver/Src/stm32f4xx_hal_exti.c **** /**
 312:Drivers/STM32F4xx_HAL_Driver/Src/stm32f4xx_hal_exti.c ****   * @brief  Clear whole configuration of a dedicated Exti line.
 313:Drivers/STM32F4xx_HAL_Driver/Src/stm32f4xx_hal_exti.c ****   * @param  hexti Exti handle.
 314:Drivers/STM32F4xx_HAL_Driver/Src/stm32f4xx_hal_exti.c ****   * @retval HAL Status.
 315:Drivers/STM32F4xx_HAL_Driver/Src/stm32f4xx_hal_exti.c ****   */
 316:Drivers/STM32F4xx_HAL_Driver/Src/stm32f4xx_hal_exti.c **** HAL_StatusTypeDef HAL_EXTI_ClearConfigLine(EXTI_HandleTypeDef *hexti)
 317:Drivers/STM32F4xx_HAL_Driver/Src/stm32f4xx_hal_exti.c **** {
 597              		.loc 1 317 1 is_stmt 1 view -0
ARM GAS  C:\Users\minhp\AppData\Local\Temp\ccWBVzXh.s 			page 18


 598              		.cfi_startproc
 599              		@ args = 0, pretend = 0, frame = 0
 600              		@ frame_needed = 0, uses_anonymous_args = 0
 318:Drivers/STM32F4xx_HAL_Driver/Src/stm32f4xx_hal_exti.c ****   uint32_t regval;
 601              		.loc 1 318 3 view .LVU167
 319:Drivers/STM32F4xx_HAL_Driver/Src/stm32f4xx_hal_exti.c ****   uint32_t linepos;
 602              		.loc 1 319 3 view .LVU168
 320:Drivers/STM32F4xx_HAL_Driver/Src/stm32f4xx_hal_exti.c ****   uint32_t maskline;
 603              		.loc 1 320 3 view .LVU169
 321:Drivers/STM32F4xx_HAL_Driver/Src/stm32f4xx_hal_exti.c **** 
 322:Drivers/STM32F4xx_HAL_Driver/Src/stm32f4xx_hal_exti.c ****   /* Check null pointer */
 323:Drivers/STM32F4xx_HAL_Driver/Src/stm32f4xx_hal_exti.c ****   if (hexti == NULL)
 604              		.loc 1 323 3 view .LVU170
 605              		.loc 1 323 6 is_stmt 0 view .LVU171
 606 0000 0028     		cmp	r0, #0
 607 0002 55D0     		beq	.L60
 317:Drivers/STM32F4xx_HAL_Driver/Src/stm32f4xx_hal_exti.c ****   uint32_t regval;
 608              		.loc 1 317 1 view .LVU172
 609 0004 70B5     		push	{r4, r5, r6, lr}
 610              	.LCFI6:
 611              		.cfi_def_cfa_offset 16
 612              		.cfi_offset 4, -16
 613              		.cfi_offset 5, -12
 614              		.cfi_offset 6, -8
 615              		.cfi_offset 14, -4
 616 0006 0446     		mov	r4, r0
 324:Drivers/STM32F4xx_HAL_Driver/Src/stm32f4xx_hal_exti.c ****   {
 325:Drivers/STM32F4xx_HAL_Driver/Src/stm32f4xx_hal_exti.c ****     return HAL_ERROR;
 326:Drivers/STM32F4xx_HAL_Driver/Src/stm32f4xx_hal_exti.c ****   }
 327:Drivers/STM32F4xx_HAL_Driver/Src/stm32f4xx_hal_exti.c **** 
 328:Drivers/STM32F4xx_HAL_Driver/Src/stm32f4xx_hal_exti.c ****   /* Check the parameter */
 329:Drivers/STM32F4xx_HAL_Driver/Src/stm32f4xx_hal_exti.c ****   assert_param(IS_EXTI_LINE(hexti->Line));
 617              		.loc 1 329 3 is_stmt 1 view .LVU173
 618 0008 0268     		ldr	r2, [r0]
 619 000a 22F0C063 		bic	r3, r2, #100663296
 620 000e 23F01F03 		bic	r3, r3, #31
 621 0012 3BB9     		cbnz	r3, .L56
 622              		.loc 1 329 3 is_stmt 0 discriminator 2 view .LVU174
 623 0014 02F0C063 		and	r3, r2, #100663296
 624 0018 B3F1007F 		cmp	r3, #33554432
 625 001c 29D0     		beq	.L57
 626              		.loc 1 329 3 discriminator 3 view .LVU175
 627 001e B3F1C06F 		cmp	r3, #100663296
 628 0022 26D0     		beq	.L57
 629              	.L56:
 630              		.loc 1 329 3 discriminator 7 view .LVU176
 631 0024 40F24911 		movw	r1, #329
 632 0028 2348     		ldr	r0, .L69
 633              	.LVL50:
 634              		.loc 1 329 3 discriminator 7 view .LVU177
 635 002a FFF7FEFF 		bl	assert_failed
 636              	.LVL51:
 637              	.L58:
 330:Drivers/STM32F4xx_HAL_Driver/Src/stm32f4xx_hal_exti.c **** 
 331:Drivers/STM32F4xx_HAL_Driver/Src/stm32f4xx_hal_exti.c ****   /* compute line mask */
 332:Drivers/STM32F4xx_HAL_Driver/Src/stm32f4xx_hal_exti.c ****   linepos = (hexti->Line & EXTI_PIN_MASK);
 638              		.loc 1 332 3 is_stmt 1 view .LVU178
ARM GAS  C:\Users\minhp\AppData\Local\Temp\ccWBVzXh.s 			page 19


 639              		.loc 1 332 19 is_stmt 0 view .LVU179
 640 002e 2668     		ldr	r6, [r4]
 641              		.loc 1 332 11 view .LVU180
 642 0030 06F01F05 		and	r5, r6, #31
 643              	.LVL52:
 333:Drivers/STM32F4xx_HAL_Driver/Src/stm32f4xx_hal_exti.c ****   maskline = (1uL << linepos);
 644              		.loc 1 333 3 is_stmt 1 view .LVU181
 645              		.loc 1 333 12 is_stmt 0 view .LVU182
 646 0034 0123     		movs	r3, #1
 647 0036 AB40     		lsls	r3, r3, r5
 648              	.LVL53:
 334:Drivers/STM32F4xx_HAL_Driver/Src/stm32f4xx_hal_exti.c **** 
 335:Drivers/STM32F4xx_HAL_Driver/Src/stm32f4xx_hal_exti.c ****   /* 1] Clear interrupt mode */
 336:Drivers/STM32F4xx_HAL_Driver/Src/stm32f4xx_hal_exti.c ****   EXTI->IMR = (EXTI->IMR & ~maskline);
 649              		.loc 1 336 3 is_stmt 1 view .LVU183
 650              		.loc 1 336 20 is_stmt 0 view .LVU184
 651 0038 204A     		ldr	r2, .L69+4
 652 003a 1168     		ldr	r1, [r2]
 653              		.loc 1 336 28 view .LVU185
 654 003c D843     		mvns	r0, r3
 655              		.loc 1 336 26 view .LVU186
 656 003e 21EA0301 		bic	r1, r1, r3
 657              		.loc 1 336 13 view .LVU187
 658 0042 1160     		str	r1, [r2]
 337:Drivers/STM32F4xx_HAL_Driver/Src/stm32f4xx_hal_exti.c **** 
 338:Drivers/STM32F4xx_HAL_Driver/Src/stm32f4xx_hal_exti.c ****   /* 2] Clear event mode */
 339:Drivers/STM32F4xx_HAL_Driver/Src/stm32f4xx_hal_exti.c ****   EXTI->EMR = (EXTI->EMR & ~maskline);
 659              		.loc 1 339 3 is_stmt 1 view .LVU188
 660              		.loc 1 339 20 is_stmt 0 view .LVU189
 661 0044 5168     		ldr	r1, [r2, #4]
 662              		.loc 1 339 26 view .LVU190
 663 0046 21EA0303 		bic	r3, r1, r3
 664              	.LVL54:
 665              		.loc 1 339 13 view .LVU191
 666 004a 5360     		str	r3, [r2, #4]
 340:Drivers/STM32F4xx_HAL_Driver/Src/stm32f4xx_hal_exti.c **** 
 341:Drivers/STM32F4xx_HAL_Driver/Src/stm32f4xx_hal_exti.c ****   /* 3] Clear triggers in case of configurable lines */
 342:Drivers/STM32F4xx_HAL_Driver/Src/stm32f4xx_hal_exti.c ****   if ((hexti->Line & EXTI_CONFIG) != 0x00u)
 667              		.loc 1 342 3 is_stmt 1 view .LVU192
 668              		.loc 1 342 13 is_stmt 0 view .LVU193
 669 004c 2368     		ldr	r3, [r4]
 670              		.loc 1 342 6 view .LVU194
 671 004e 13F0007F 		tst	r3, #33554432
 672 0052 2FD0     		beq	.L61
 343:Drivers/STM32F4xx_HAL_Driver/Src/stm32f4xx_hal_exti.c ****   {
 344:Drivers/STM32F4xx_HAL_Driver/Src/stm32f4xx_hal_exti.c ****     EXTI->RTSR = (EXTI->RTSR & ~maskline);
 673              		.loc 1 344 5 is_stmt 1 view .LVU195
 674              		.loc 1 344 23 is_stmt 0 view .LVU196
 675 0054 1346     		mov	r3, r2
 676 0056 9268     		ldr	r2, [r2, #8]
 677              		.loc 1 344 30 view .LVU197
 678 0058 0240     		ands	r2, r2, r0
 679              		.loc 1 344 16 view .LVU198
 680 005a 9A60     		str	r2, [r3, #8]
 345:Drivers/STM32F4xx_HAL_Driver/Src/stm32f4xx_hal_exti.c ****     EXTI->FTSR = (EXTI->FTSR & ~maskline);
 681              		.loc 1 345 5 is_stmt 1 view .LVU199
 682              		.loc 1 345 23 is_stmt 0 view .LVU200
ARM GAS  C:\Users\minhp\AppData\Local\Temp\ccWBVzXh.s 			page 20


 683 005c DA68     		ldr	r2, [r3, #12]
 684              		.loc 1 345 30 view .LVU201
 685 005e 1040     		ands	r0, r0, r2
 686              	.LVL55:
 687              		.loc 1 345 16 view .LVU202
 688 0060 D860     		str	r0, [r3, #12]
 346:Drivers/STM32F4xx_HAL_Driver/Src/stm32f4xx_hal_exti.c **** 
 347:Drivers/STM32F4xx_HAL_Driver/Src/stm32f4xx_hal_exti.c ****     /* Get Gpio port selection for gpio lines */
 348:Drivers/STM32F4xx_HAL_Driver/Src/stm32f4xx_hal_exti.c ****     if ((hexti->Line & EXTI_GPIO) == EXTI_GPIO)
 689              		.loc 1 348 5 is_stmt 1 view .LVU203
 690              		.loc 1 348 15 is_stmt 0 view .LVU204
 691 0062 2368     		ldr	r3, [r4]
 692              		.loc 1 348 22 view .LVU205
 693 0064 03F0C063 		and	r3, r3, #100663296
 694              		.loc 1 348 8 view .LVU206
 695 0068 B3F1C06F 		cmp	r3, #100663296
 696 006c 06D0     		beq	.L67
 349:Drivers/STM32F4xx_HAL_Driver/Src/stm32f4xx_hal_exti.c ****     {
 350:Drivers/STM32F4xx_HAL_Driver/Src/stm32f4xx_hal_exti.c ****       assert_param(IS_EXTI_GPIO_PIN(linepos));
 351:Drivers/STM32F4xx_HAL_Driver/Src/stm32f4xx_hal_exti.c **** 
 352:Drivers/STM32F4xx_HAL_Driver/Src/stm32f4xx_hal_exti.c ****       regval = SYSCFG->EXTICR[linepos >> 2u];
 353:Drivers/STM32F4xx_HAL_Driver/Src/stm32f4xx_hal_exti.c ****       regval &= ~(SYSCFG_EXTICR1_EXTI0 << (SYSCFG_EXTICR1_EXTI1_Pos * (linepos & 0x03u)));
 354:Drivers/STM32F4xx_HAL_Driver/Src/stm32f4xx_hal_exti.c ****       SYSCFG->EXTICR[linepos >> 2u] = regval;
 355:Drivers/STM32F4xx_HAL_Driver/Src/stm32f4xx_hal_exti.c ****     }
 356:Drivers/STM32F4xx_HAL_Driver/Src/stm32f4xx_hal_exti.c ****   }
 357:Drivers/STM32F4xx_HAL_Driver/Src/stm32f4xx_hal_exti.c **** 
 358:Drivers/STM32F4xx_HAL_Driver/Src/stm32f4xx_hal_exti.c ****   return HAL_OK;
 697              		.loc 1 358 10 view .LVU207
 698 006e 0020     		movs	r0, #0
 699 0070 21E0     		b	.L55
 700              	.LVL56:
 701              	.L57:
 329:Drivers/STM32F4xx_HAL_Driver/Src/stm32f4xx_hal_exti.c **** 
 702              		.loc 1 329 3 discriminator 6 view .LVU208
 703 0072 02F01F02 		and	r2, r2, #31
 704 0076 162A     		cmp	r2, #22
 705 0078 D9D9     		bls	.L58
 706 007a D3E7     		b	.L56
 707              	.LVL57:
 708              	.L67:
 350:Drivers/STM32F4xx_HAL_Driver/Src/stm32f4xx_hal_exti.c **** 
 709              		.loc 1 350 7 is_stmt 1 view .LVU209
 710 007c 16F0100F 		tst	r6, #16
 711 0080 10D1     		bne	.L68
 712              	.L59:
 352:Drivers/STM32F4xx_HAL_Driver/Src/stm32f4xx_hal_exti.c ****       regval &= ~(SYSCFG_EXTICR1_EXTI0 << (SYSCFG_EXTICR1_EXTI1_Pos * (linepos & 0x03u)));
 713              		.loc 1 352 7 view .LVU210
 352:Drivers/STM32F4xx_HAL_Driver/Src/stm32f4xx_hal_exti.c ****       regval &= ~(SYSCFG_EXTICR1_EXTI0 << (SYSCFG_EXTICR1_EXTI1_Pos * (linepos & 0x03u)));
 714              		.loc 1 352 39 is_stmt 0 view .LVU211
 715 0082 AD08     		lsrs	r5, r5, #2
 716              	.LVL58:
 352:Drivers/STM32F4xx_HAL_Driver/Src/stm32f4xx_hal_exti.c ****       regval &= ~(SYSCFG_EXTICR1_EXTI0 << (SYSCFG_EXTICR1_EXTI1_Pos * (linepos & 0x03u)));
 717              		.loc 1 352 14 view .LVU212
 718 0084 0E49     		ldr	r1, .L69+8
 719 0086 0235     		adds	r5, r5, #2
 720 0088 51F82530 		ldr	r3, [r1, r5, lsl #2]
 721              	.LVL59:
ARM GAS  C:\Users\minhp\AppData\Local\Temp\ccWBVzXh.s 			page 21


 353:Drivers/STM32F4xx_HAL_Driver/Src/stm32f4xx_hal_exti.c ****       SYSCFG->EXTICR[linepos >> 2u] = regval;
 722              		.loc 1 353 7 is_stmt 1 view .LVU213
 353:Drivers/STM32F4xx_HAL_Driver/Src/stm32f4xx_hal_exti.c ****       SYSCFG->EXTICR[linepos >> 2u] = regval;
 723              		.loc 1 353 80 is_stmt 0 view .LVU214
 724 008c 06F00306 		and	r6, r6, #3
 725              	.LVL60:
 353:Drivers/STM32F4xx_HAL_Driver/Src/stm32f4xx_hal_exti.c ****       SYSCFG->EXTICR[linepos >> 2u] = regval;
 726              		.loc 1 353 69 view .LVU215
 727 0090 B600     		lsls	r6, r6, #2
 353:Drivers/STM32F4xx_HAL_Driver/Src/stm32f4xx_hal_exti.c ****       SYSCFG->EXTICR[linepos >> 2u] = regval;
 728              		.loc 1 353 40 view .LVU216
 729 0092 0F22     		movs	r2, #15
 730 0094 02FA06F6 		lsl	r6, r2, r6
 353:Drivers/STM32F4xx_HAL_Driver/Src/stm32f4xx_hal_exti.c ****       SYSCFG->EXTICR[linepos >> 2u] = regval;
 731              		.loc 1 353 14 view .LVU217
 732 0098 23EA0606 		bic	r6, r3, r6
 733              	.LVL61:
 354:Drivers/STM32F4xx_HAL_Driver/Src/stm32f4xx_hal_exti.c ****     }
 734              		.loc 1 354 7 is_stmt 1 view .LVU218
 354:Drivers/STM32F4xx_HAL_Driver/Src/stm32f4xx_hal_exti.c ****     }
 735              		.loc 1 354 37 is_stmt 0 view .LVU219
 736 009c 41F82560 		str	r6, [r1, r5, lsl #2]
 737              		.loc 1 358 10 view .LVU220
 738 00a0 0020     		movs	r0, #0
 739 00a2 08E0     		b	.L55
 740              	.LVL62:
 741              	.L68:
 350:Drivers/STM32F4xx_HAL_Driver/Src/stm32f4xx_hal_exti.c **** 
 742              		.loc 1 350 7 discriminator 1 view .LVU221
 743 00a4 4FF4AF71 		mov	r1, #350
 744 00a8 0348     		ldr	r0, .L69
 745 00aa FFF7FEFF 		bl	assert_failed
 746              	.LVL63:
 747 00ae E8E7     		b	.L59
 748              	.LVL64:
 749              	.L60:
 750              	.LCFI7:
 751              		.cfi_def_cfa_offset 0
 752              		.cfi_restore 4
 753              		.cfi_restore 5
 754              		.cfi_restore 6
 755              		.cfi_restore 14
 325:Drivers/STM32F4xx_HAL_Driver/Src/stm32f4xx_hal_exti.c ****   }
 756              		.loc 1 325 12 view .LVU222
 757 00b0 0120     		movs	r0, #1
 758              	.LVL65:
 359:Drivers/STM32F4xx_HAL_Driver/Src/stm32f4xx_hal_exti.c **** }
 759              		.loc 1 359 1 view .LVU223
 760 00b2 7047     		bx	lr
 761              	.LVL66:
 762              	.L61:
 763              	.LCFI8:
 764              		.cfi_def_cfa_offset 16
 765              		.cfi_offset 4, -16
 766              		.cfi_offset 5, -12
 767              		.cfi_offset 6, -8
 768              		.cfi_offset 14, -4
ARM GAS  C:\Users\minhp\AppData\Local\Temp\ccWBVzXh.s 			page 22


 358:Drivers/STM32F4xx_HAL_Driver/Src/stm32f4xx_hal_exti.c **** }
 769              		.loc 1 358 10 view .LVU224
 770 00b4 0020     		movs	r0, #0
 771              	.LVL67:
 772              	.L55:
 773              		.loc 1 359 1 view .LVU225
 774 00b6 70BD     		pop	{r4, r5, r6, pc}
 775              	.LVL68:
 776              	.L70:
 777              		.loc 1 359 1 view .LVU226
 778              		.align	2
 779              	.L69:
 780 00b8 00000000 		.word	.LC0
 781 00bc 003C0140 		.word	1073822720
 782 00c0 00380140 		.word	1073821696
 783              		.cfi_endproc
 784              	.LFE132:
 786              		.section	.text.HAL_EXTI_RegisterCallback,"ax",%progbits
 787              		.align	1
 788              		.global	HAL_EXTI_RegisterCallback
 789              		.syntax unified
 790              		.thumb
 791              		.thumb_func
 793              	HAL_EXTI_RegisterCallback:
 794              	.LVL69:
 795              	.LFB133:
 360:Drivers/STM32F4xx_HAL_Driver/Src/stm32f4xx_hal_exti.c **** 
 361:Drivers/STM32F4xx_HAL_Driver/Src/stm32f4xx_hal_exti.c **** /**
 362:Drivers/STM32F4xx_HAL_Driver/Src/stm32f4xx_hal_exti.c ****   * @brief  Register callback for a dedicated Exti line.
 363:Drivers/STM32F4xx_HAL_Driver/Src/stm32f4xx_hal_exti.c ****   * @param  hexti Exti handle.
 364:Drivers/STM32F4xx_HAL_Driver/Src/stm32f4xx_hal_exti.c ****   * @param  CallbackID User callback identifier.
 365:Drivers/STM32F4xx_HAL_Driver/Src/stm32f4xx_hal_exti.c ****   *         This parameter can be one of @arg @ref EXTI_CallbackIDTypeDef values.
 366:Drivers/STM32F4xx_HAL_Driver/Src/stm32f4xx_hal_exti.c ****   * @param  pPendingCbfn function pointer to be stored as callback.
 367:Drivers/STM32F4xx_HAL_Driver/Src/stm32f4xx_hal_exti.c ****   * @retval HAL Status.
 368:Drivers/STM32F4xx_HAL_Driver/Src/stm32f4xx_hal_exti.c ****   */
 369:Drivers/STM32F4xx_HAL_Driver/Src/stm32f4xx_hal_exti.c **** HAL_StatusTypeDef HAL_EXTI_RegisterCallback(EXTI_HandleTypeDef *hexti, EXTI_CallbackIDTypeDef Callb
 370:Drivers/STM32F4xx_HAL_Driver/Src/stm32f4xx_hal_exti.c **** {
 796              		.loc 1 370 1 is_stmt 1 view -0
 797              		.cfi_startproc
 798              		@ args = 0, pretend = 0, frame = 0
 799              		@ frame_needed = 0, uses_anonymous_args = 0
 800              		@ link register save eliminated.
 801              		.loc 1 370 1 is_stmt 0 view .LVU228
 802 0000 0346     		mov	r3, r0
 371:Drivers/STM32F4xx_HAL_Driver/Src/stm32f4xx_hal_exti.c ****   HAL_StatusTypeDef status = HAL_OK;
 803              		.loc 1 371 3 is_stmt 1 view .LVU229
 804              	.LVL70:
 372:Drivers/STM32F4xx_HAL_Driver/Src/stm32f4xx_hal_exti.c **** 
 373:Drivers/STM32F4xx_HAL_Driver/Src/stm32f4xx_hal_exti.c ****   switch (CallbackID)
 805              		.loc 1 373 3 view .LVU230
 806 0002 0846     		mov	r0, r1
 807              	.LVL71:
 808              		.loc 1 373 3 is_stmt 0 view .LVU231
 809 0004 09B9     		cbnz	r1, .L73
 374:Drivers/STM32F4xx_HAL_Driver/Src/stm32f4xx_hal_exti.c ****   {
 375:Drivers/STM32F4xx_HAL_Driver/Src/stm32f4xx_hal_exti.c ****     case  HAL_EXTI_COMMON_CB_ID:
 376:Drivers/STM32F4xx_HAL_Driver/Src/stm32f4xx_hal_exti.c ****       hexti->PendingCallback = pPendingCbfn;
ARM GAS  C:\Users\minhp\AppData\Local\Temp\ccWBVzXh.s 			page 23


 810              		.loc 1 376 7 is_stmt 1 view .LVU232
 811              		.loc 1 376 30 is_stmt 0 view .LVU233
 812 0006 5A60     		str	r2, [r3, #4]
 377:Drivers/STM32F4xx_HAL_Driver/Src/stm32f4xx_hal_exti.c ****       break;
 813              		.loc 1 377 7 is_stmt 1 view .LVU234
 814 0008 7047     		bx	lr
 815              	.L73:
 378:Drivers/STM32F4xx_HAL_Driver/Src/stm32f4xx_hal_exti.c **** 
 379:Drivers/STM32F4xx_HAL_Driver/Src/stm32f4xx_hal_exti.c ****     default:
 380:Drivers/STM32F4xx_HAL_Driver/Src/stm32f4xx_hal_exti.c ****       status = HAL_ERROR;
 816              		.loc 1 380 14 is_stmt 0 view .LVU235
 817 000a 0120     		movs	r0, #1
 818              	.LVL72:
 381:Drivers/STM32F4xx_HAL_Driver/Src/stm32f4xx_hal_exti.c ****       break;
 382:Drivers/STM32F4xx_HAL_Driver/Src/stm32f4xx_hal_exti.c ****   }
 383:Drivers/STM32F4xx_HAL_Driver/Src/stm32f4xx_hal_exti.c **** 
 384:Drivers/STM32F4xx_HAL_Driver/Src/stm32f4xx_hal_exti.c ****   return status;
 819              		.loc 1 384 3 is_stmt 1 view .LVU236
 385:Drivers/STM32F4xx_HAL_Driver/Src/stm32f4xx_hal_exti.c **** }
 820              		.loc 1 385 1 is_stmt 0 view .LVU237
 821 000c 7047     		bx	lr
 822              		.cfi_endproc
 823              	.LFE133:
 825              		.section	.text.HAL_EXTI_GetHandle,"ax",%progbits
 826              		.align	1
 827              		.global	HAL_EXTI_GetHandle
 828              		.syntax unified
 829              		.thumb
 830              		.thumb_func
 832              	HAL_EXTI_GetHandle:
 833              	.LVL73:
 834              	.LFB134:
 386:Drivers/STM32F4xx_HAL_Driver/Src/stm32f4xx_hal_exti.c **** 
 387:Drivers/STM32F4xx_HAL_Driver/Src/stm32f4xx_hal_exti.c **** /**
 388:Drivers/STM32F4xx_HAL_Driver/Src/stm32f4xx_hal_exti.c ****   * @brief  Store line number as handle private field.
 389:Drivers/STM32F4xx_HAL_Driver/Src/stm32f4xx_hal_exti.c ****   * @param  hexti Exti handle.
 390:Drivers/STM32F4xx_HAL_Driver/Src/stm32f4xx_hal_exti.c ****   * @param  ExtiLine Exti line number.
 391:Drivers/STM32F4xx_HAL_Driver/Src/stm32f4xx_hal_exti.c ****   *         This parameter can be from 0 to @ref EXTI_LINE_NB.
 392:Drivers/STM32F4xx_HAL_Driver/Src/stm32f4xx_hal_exti.c ****   * @retval HAL Status.
 393:Drivers/STM32F4xx_HAL_Driver/Src/stm32f4xx_hal_exti.c ****   */
 394:Drivers/STM32F4xx_HAL_Driver/Src/stm32f4xx_hal_exti.c **** HAL_StatusTypeDef HAL_EXTI_GetHandle(EXTI_HandleTypeDef *hexti, uint32_t ExtiLine)
 395:Drivers/STM32F4xx_HAL_Driver/Src/stm32f4xx_hal_exti.c **** {
 835              		.loc 1 395 1 is_stmt 1 view -0
 836              		.cfi_startproc
 837              		@ args = 0, pretend = 0, frame = 0
 838              		@ frame_needed = 0, uses_anonymous_args = 0
 839              		.loc 1 395 1 is_stmt 0 view .LVU239
 840 0000 38B5     		push	{r3, r4, r5, lr}
 841              	.LCFI9:
 842              		.cfi_def_cfa_offset 16
 843              		.cfi_offset 3, -16
 844              		.cfi_offset 4, -12
 845              		.cfi_offset 5, -8
 846              		.cfi_offset 14, -4
 847 0002 0546     		mov	r5, r0
 848 0004 0C46     		mov	r4, r1
 396:Drivers/STM32F4xx_HAL_Driver/Src/stm32f4xx_hal_exti.c ****   /* Check the parameters */
ARM GAS  C:\Users\minhp\AppData\Local\Temp\ccWBVzXh.s 			page 24


 397:Drivers/STM32F4xx_HAL_Driver/Src/stm32f4xx_hal_exti.c ****   assert_param(IS_EXTI_LINE(ExtiLine));
 849              		.loc 1 397 3 is_stmt 1 view .LVU240
 850 0006 21F0C063 		bic	r3, r1, #100663296
 851 000a 23F01F03 		bic	r3, r3, #31
 852 000e 3BB9     		cbnz	r3, .L75
 853              		.loc 1 397 3 is_stmt 0 discriminator 2 view .LVU241
 854 0010 01F0C063 		and	r3, r1, #100663296
 855 0014 B3F1007F 		cmp	r3, #33554432
 856 0018 0BD0     		beq	.L76
 857              		.loc 1 397 3 discriminator 3 view .LVU242
 858 001a B3F1C06F 		cmp	r3, #100663296
 859 001e 08D0     		beq	.L76
 860              	.L75:
 861              		.loc 1 397 3 discriminator 7 view .LVU243
 862 0020 40F28D11 		movw	r1, #397
 863              	.LVL74:
 864              		.loc 1 397 3 discriminator 7 view .LVU244
 865 0024 0648     		ldr	r0, .L81
 866              	.LVL75:
 867              		.loc 1 397 3 discriminator 7 view .LVU245
 868 0026 FFF7FEFF 		bl	assert_failed
 869              	.LVL76:
 870              	.L77:
 398:Drivers/STM32F4xx_HAL_Driver/Src/stm32f4xx_hal_exti.c **** 
 399:Drivers/STM32F4xx_HAL_Driver/Src/stm32f4xx_hal_exti.c ****   /* Check null pointer */
 400:Drivers/STM32F4xx_HAL_Driver/Src/stm32f4xx_hal_exti.c ****   if (hexti == NULL)
 871              		.loc 1 400 3 is_stmt 1 view .LVU246
 872              		.loc 1 400 6 is_stmt 0 view .LVU247
 873 002a 3DB1     		cbz	r5, .L79
 401:Drivers/STM32F4xx_HAL_Driver/Src/stm32f4xx_hal_exti.c ****   {
 402:Drivers/STM32F4xx_HAL_Driver/Src/stm32f4xx_hal_exti.c ****     return HAL_ERROR;
 403:Drivers/STM32F4xx_HAL_Driver/Src/stm32f4xx_hal_exti.c ****   }
 404:Drivers/STM32F4xx_HAL_Driver/Src/stm32f4xx_hal_exti.c ****   else
 405:Drivers/STM32F4xx_HAL_Driver/Src/stm32f4xx_hal_exti.c ****   {
 406:Drivers/STM32F4xx_HAL_Driver/Src/stm32f4xx_hal_exti.c ****     /* Store line number as handle private field */
 407:Drivers/STM32F4xx_HAL_Driver/Src/stm32f4xx_hal_exti.c ****     hexti->Line = ExtiLine;
 874              		.loc 1 407 5 is_stmt 1 view .LVU248
 875              		.loc 1 407 17 is_stmt 0 view .LVU249
 876 002c 2C60     		str	r4, [r5]
 408:Drivers/STM32F4xx_HAL_Driver/Src/stm32f4xx_hal_exti.c **** 
 409:Drivers/STM32F4xx_HAL_Driver/Src/stm32f4xx_hal_exti.c ****     return HAL_OK;
 877              		.loc 1 409 5 is_stmt 1 view .LVU250
 878              		.loc 1 409 12 is_stmt 0 view .LVU251
 879 002e 0020     		movs	r0, #0
 880              	.L78:
 410:Drivers/STM32F4xx_HAL_Driver/Src/stm32f4xx_hal_exti.c ****   }
 411:Drivers/STM32F4xx_HAL_Driver/Src/stm32f4xx_hal_exti.c **** }
 881              		.loc 1 411 1 view .LVU252
 882 0030 38BD     		pop	{r3, r4, r5, pc}
 883              	.LVL77:
 884              	.L76:
 397:Drivers/STM32F4xx_HAL_Driver/Src/stm32f4xx_hal_exti.c **** 
 885              		.loc 1 397 3 discriminator 6 view .LVU253
 886 0032 04F01F03 		and	r3, r4, #31
 887 0036 162B     		cmp	r3, #22
 888 0038 F7D9     		bls	.L77
 889 003a F1E7     		b	.L75
ARM GAS  C:\Users\minhp\AppData\Local\Temp\ccWBVzXh.s 			page 25


 890              	.LVL78:
 891              	.L79:
 402:Drivers/STM32F4xx_HAL_Driver/Src/stm32f4xx_hal_exti.c ****   }
 892              		.loc 1 402 12 view .LVU254
 893 003c 0120     		movs	r0, #1
 894 003e F7E7     		b	.L78
 895              	.L82:
 896              		.align	2
 897              	.L81:
 898 0040 00000000 		.word	.LC0
 899              		.cfi_endproc
 900              	.LFE134:
 902              		.section	.text.HAL_EXTI_IRQHandler,"ax",%progbits
 903              		.align	1
 904              		.global	HAL_EXTI_IRQHandler
 905              		.syntax unified
 906              		.thumb
 907              		.thumb_func
 909              	HAL_EXTI_IRQHandler:
 910              	.LVL79:
 911              	.LFB135:
 412:Drivers/STM32F4xx_HAL_Driver/Src/stm32f4xx_hal_exti.c **** 
 413:Drivers/STM32F4xx_HAL_Driver/Src/stm32f4xx_hal_exti.c **** /**
 414:Drivers/STM32F4xx_HAL_Driver/Src/stm32f4xx_hal_exti.c ****   * @}
 415:Drivers/STM32F4xx_HAL_Driver/Src/stm32f4xx_hal_exti.c ****   */
 416:Drivers/STM32F4xx_HAL_Driver/Src/stm32f4xx_hal_exti.c **** 
 417:Drivers/STM32F4xx_HAL_Driver/Src/stm32f4xx_hal_exti.c **** /** @addtogroup EXTI_Exported_Functions_Group2
 418:Drivers/STM32F4xx_HAL_Driver/Src/stm32f4xx_hal_exti.c ****   *  @brief EXTI IO functions.
 419:Drivers/STM32F4xx_HAL_Driver/Src/stm32f4xx_hal_exti.c ****   *
 420:Drivers/STM32F4xx_HAL_Driver/Src/stm32f4xx_hal_exti.c **** @verbatim
 421:Drivers/STM32F4xx_HAL_Driver/Src/stm32f4xx_hal_exti.c ****  ===============================================================================
 422:Drivers/STM32F4xx_HAL_Driver/Src/stm32f4xx_hal_exti.c ****                        ##### IO operation functions #####
 423:Drivers/STM32F4xx_HAL_Driver/Src/stm32f4xx_hal_exti.c ****  ===============================================================================
 424:Drivers/STM32F4xx_HAL_Driver/Src/stm32f4xx_hal_exti.c **** 
 425:Drivers/STM32F4xx_HAL_Driver/Src/stm32f4xx_hal_exti.c **** @endverbatim
 426:Drivers/STM32F4xx_HAL_Driver/Src/stm32f4xx_hal_exti.c ****   * @{
 427:Drivers/STM32F4xx_HAL_Driver/Src/stm32f4xx_hal_exti.c ****   */
 428:Drivers/STM32F4xx_HAL_Driver/Src/stm32f4xx_hal_exti.c **** 
 429:Drivers/STM32F4xx_HAL_Driver/Src/stm32f4xx_hal_exti.c **** /**
 430:Drivers/STM32F4xx_HAL_Driver/Src/stm32f4xx_hal_exti.c ****   * @brief  Handle EXTI interrupt request.
 431:Drivers/STM32F4xx_HAL_Driver/Src/stm32f4xx_hal_exti.c ****   * @param  hexti Exti handle.
 432:Drivers/STM32F4xx_HAL_Driver/Src/stm32f4xx_hal_exti.c ****   * @retval none.
 433:Drivers/STM32F4xx_HAL_Driver/Src/stm32f4xx_hal_exti.c ****   */
 434:Drivers/STM32F4xx_HAL_Driver/Src/stm32f4xx_hal_exti.c **** void HAL_EXTI_IRQHandler(EXTI_HandleTypeDef *hexti)
 435:Drivers/STM32F4xx_HAL_Driver/Src/stm32f4xx_hal_exti.c **** {
 912              		.loc 1 435 1 is_stmt 1 view -0
 913              		.cfi_startproc
 914              		@ args = 0, pretend = 0, frame = 0
 915              		@ frame_needed = 0, uses_anonymous_args = 0
 916              		.loc 1 435 1 is_stmt 0 view .LVU256
 917 0000 08B5     		push	{r3, lr}
 918              	.LCFI10:
 919              		.cfi_def_cfa_offset 8
 920              		.cfi_offset 3, -8
 921              		.cfi_offset 14, -4
 436:Drivers/STM32F4xx_HAL_Driver/Src/stm32f4xx_hal_exti.c ****   uint32_t regval;
 922              		.loc 1 436 3 is_stmt 1 view .LVU257
ARM GAS  C:\Users\minhp\AppData\Local\Temp\ccWBVzXh.s 			page 26


 437:Drivers/STM32F4xx_HAL_Driver/Src/stm32f4xx_hal_exti.c ****   uint32_t maskline;
 923              		.loc 1 437 3 view .LVU258
 438:Drivers/STM32F4xx_HAL_Driver/Src/stm32f4xx_hal_exti.c **** 
 439:Drivers/STM32F4xx_HAL_Driver/Src/stm32f4xx_hal_exti.c ****   /* Compute line mask */
 440:Drivers/STM32F4xx_HAL_Driver/Src/stm32f4xx_hal_exti.c ****   maskline = (1uL << (hexti->Line & EXTI_PIN_MASK));
 924              		.loc 1 440 3 view .LVU259
 925              		.loc 1 440 28 is_stmt 0 view .LVU260
 926 0002 0368     		ldr	r3, [r0]
 927              		.loc 1 440 35 view .LVU261
 928 0004 03F01F02 		and	r2, r3, #31
 929              		.loc 1 440 12 view .LVU262
 930 0008 0123     		movs	r3, #1
 931 000a 9340     		lsls	r3, r3, r2
 932              	.LVL80:
 441:Drivers/STM32F4xx_HAL_Driver/Src/stm32f4xx_hal_exti.c **** 
 442:Drivers/STM32F4xx_HAL_Driver/Src/stm32f4xx_hal_exti.c ****   /* Get pending bit  */
 443:Drivers/STM32F4xx_HAL_Driver/Src/stm32f4xx_hal_exti.c ****   regval = (EXTI->PR & maskline);
 933              		.loc 1 443 3 is_stmt 1 view .LVU263
 934              		.loc 1 443 17 is_stmt 0 view .LVU264
 935 000c 044A     		ldr	r2, .L86
 936 000e 5269     		ldr	r2, [r2, #20]
 937              	.LVL81:
 444:Drivers/STM32F4xx_HAL_Driver/Src/stm32f4xx_hal_exti.c ****   if (regval != 0x00u)
 938              		.loc 1 444 3 is_stmt 1 view .LVU265
 939              		.loc 1 444 6 is_stmt 0 view .LVU266
 940 0010 1A42     		tst	r2, r3
 941 0012 04D0     		beq	.L83
 445:Drivers/STM32F4xx_HAL_Driver/Src/stm32f4xx_hal_exti.c ****   {
 446:Drivers/STM32F4xx_HAL_Driver/Src/stm32f4xx_hal_exti.c ****     /* Clear pending bit */
 447:Drivers/STM32F4xx_HAL_Driver/Src/stm32f4xx_hal_exti.c ****     EXTI->PR = maskline;
 942              		.loc 1 447 5 is_stmt 1 view .LVU267
 943              		.loc 1 447 14 is_stmt 0 view .LVU268
 944 0014 024A     		ldr	r2, .L86
 945              	.LVL82:
 946              		.loc 1 447 14 view .LVU269
 947 0016 5361     		str	r3, [r2, #20]
 448:Drivers/STM32F4xx_HAL_Driver/Src/stm32f4xx_hal_exti.c **** 
 449:Drivers/STM32F4xx_HAL_Driver/Src/stm32f4xx_hal_exti.c ****     /* Call callback */
 450:Drivers/STM32F4xx_HAL_Driver/Src/stm32f4xx_hal_exti.c ****     if (hexti->PendingCallback != NULL)
 948              		.loc 1 450 5 is_stmt 1 view .LVU270
 949              		.loc 1 450 14 is_stmt 0 view .LVU271
 950 0018 4368     		ldr	r3, [r0, #4]
 951              	.LVL83:
 952              		.loc 1 450 8 view .LVU272
 953 001a 03B1     		cbz	r3, .L83
 451:Drivers/STM32F4xx_HAL_Driver/Src/stm32f4xx_hal_exti.c ****     {
 452:Drivers/STM32F4xx_HAL_Driver/Src/stm32f4xx_hal_exti.c ****       hexti->PendingCallback();
 954              		.loc 1 452 7 is_stmt 1 view .LVU273
 955 001c 9847     		blx	r3
 956              	.LVL84:
 957              	.L83:
 453:Drivers/STM32F4xx_HAL_Driver/Src/stm32f4xx_hal_exti.c ****     }
 454:Drivers/STM32F4xx_HAL_Driver/Src/stm32f4xx_hal_exti.c ****   }
 455:Drivers/STM32F4xx_HAL_Driver/Src/stm32f4xx_hal_exti.c **** }
 958              		.loc 1 455 1 is_stmt 0 view .LVU274
 959 001e 08BD     		pop	{r3, pc}
 960              	.L87:
ARM GAS  C:\Users\minhp\AppData\Local\Temp\ccWBVzXh.s 			page 27


 961              		.align	2
 962              	.L86:
 963 0020 003C0140 		.word	1073822720
 964              		.cfi_endproc
 965              	.LFE135:
 967              		.section	.text.HAL_EXTI_GetPending,"ax",%progbits
 968              		.align	1
 969              		.global	HAL_EXTI_GetPending
 970              		.syntax unified
 971              		.thumb
 972              		.thumb_func
 974              	HAL_EXTI_GetPending:
 975              	.LVL85:
 976              	.LFB136:
 456:Drivers/STM32F4xx_HAL_Driver/Src/stm32f4xx_hal_exti.c **** 
 457:Drivers/STM32F4xx_HAL_Driver/Src/stm32f4xx_hal_exti.c **** /**
 458:Drivers/STM32F4xx_HAL_Driver/Src/stm32f4xx_hal_exti.c ****   * @brief  Get interrupt pending bit of a dedicated line.
 459:Drivers/STM32F4xx_HAL_Driver/Src/stm32f4xx_hal_exti.c ****   * @param  hexti Exti handle.
 460:Drivers/STM32F4xx_HAL_Driver/Src/stm32f4xx_hal_exti.c ****   * @param  Edge Specify which pending edge as to be checked.
 461:Drivers/STM32F4xx_HAL_Driver/Src/stm32f4xx_hal_exti.c ****   *         This parameter can be one of the following values:
 462:Drivers/STM32F4xx_HAL_Driver/Src/stm32f4xx_hal_exti.c ****   *           @arg @ref EXTI_TRIGGER_RISING_FALLING
 463:Drivers/STM32F4xx_HAL_Driver/Src/stm32f4xx_hal_exti.c ****   *         This parameter is kept for compatibility with other series.
 464:Drivers/STM32F4xx_HAL_Driver/Src/stm32f4xx_hal_exti.c ****   * @retval 1 if interrupt is pending else 0.
 465:Drivers/STM32F4xx_HAL_Driver/Src/stm32f4xx_hal_exti.c ****   */
 466:Drivers/STM32F4xx_HAL_Driver/Src/stm32f4xx_hal_exti.c **** uint32_t HAL_EXTI_GetPending(EXTI_HandleTypeDef *hexti, uint32_t Edge)
 467:Drivers/STM32F4xx_HAL_Driver/Src/stm32f4xx_hal_exti.c **** {
 977              		.loc 1 467 1 is_stmt 1 view -0
 978              		.cfi_startproc
 979              		@ args = 0, pretend = 0, frame = 0
 980              		@ frame_needed = 0, uses_anonymous_args = 0
 981              		.loc 1 467 1 is_stmt 0 view .LVU276
 982 0000 38B5     		push	{r3, r4, r5, lr}
 983              	.LCFI11:
 984              		.cfi_def_cfa_offset 16
 985              		.cfi_offset 3, -16
 986              		.cfi_offset 4, -12
 987              		.cfi_offset 5, -8
 988              		.cfi_offset 14, -4
 989 0002 0446     		mov	r4, r0
 990 0004 0D46     		mov	r5, r1
 468:Drivers/STM32F4xx_HAL_Driver/Src/stm32f4xx_hal_exti.c ****   uint32_t regval;
 991              		.loc 1 468 3 is_stmt 1 view .LVU277
 469:Drivers/STM32F4xx_HAL_Driver/Src/stm32f4xx_hal_exti.c ****   uint32_t linepos;
 992              		.loc 1 469 3 view .LVU278
 470:Drivers/STM32F4xx_HAL_Driver/Src/stm32f4xx_hal_exti.c ****   uint32_t maskline;
 993              		.loc 1 470 3 view .LVU279
 471:Drivers/STM32F4xx_HAL_Driver/Src/stm32f4xx_hal_exti.c **** 
 472:Drivers/STM32F4xx_HAL_Driver/Src/stm32f4xx_hal_exti.c ****   /* Check parameters */
 473:Drivers/STM32F4xx_HAL_Driver/Src/stm32f4xx_hal_exti.c ****   assert_param(IS_EXTI_LINE(hexti->Line));
 994              		.loc 1 473 3 view .LVU280
 995 0006 0268     		ldr	r2, [r0]
 996 0008 22F0C063 		bic	r3, r2, #100663296
 997 000c 23F01F03 		bic	r3, r3, #31
 998 0010 3BB9     		cbnz	r3, .L89
 999              		.loc 1 473 3 is_stmt 0 discriminator 2 view .LVU281
 1000 0012 02F0C063 		and	r3, r2, #100663296
 1001 0016 B3F1007F 		cmp	r3, #33554432
ARM GAS  C:\Users\minhp\AppData\Local\Temp\ccWBVzXh.s 			page 28


 1002 001a 18D0     		beq	.L90
 1003              		.loc 1 473 3 discriminator 3 view .LVU282
 1004 001c B3F1C06F 		cmp	r3, #100663296
 1005 0020 15D0     		beq	.L90
 1006              	.L89:
 1007              		.loc 1 473 3 discriminator 7 view .LVU283
 1008 0022 40F2D911 		movw	r1, #473
 1009              	.LVL86:
 1010              		.loc 1 473 3 discriminator 7 view .LVU284
 1011 0026 1248     		ldr	r0, .L97
 1012              	.LVL87:
 1013              		.loc 1 473 3 discriminator 7 view .LVU285
 1014 0028 FFF7FEFF 		bl	assert_failed
 1015              	.LVL88:
 1016              	.L91:
 474:Drivers/STM32F4xx_HAL_Driver/Src/stm32f4xx_hal_exti.c ****   assert_param(IS_EXTI_CONFIG_LINE(hexti->Line));
 1017              		.loc 1 474 3 is_stmt 1 view .LVU286
 1018 002c 2368     		ldr	r3, [r4]
 1019 002e 13F0007F 		tst	r3, #33554432
 1020 0032 11D0     		beq	.L95
 1021              	.L92:
 475:Drivers/STM32F4xx_HAL_Driver/Src/stm32f4xx_hal_exti.c ****   assert_param(IS_EXTI_PENDING_EDGE(Edge));
 1022              		.loc 1 475 3 view .LVU287
 1023 0034 032D     		cmp	r5, #3
 1024 0036 15D1     		bne	.L96
 1025              	.L93:
 476:Drivers/STM32F4xx_HAL_Driver/Src/stm32f4xx_hal_exti.c **** 
 477:Drivers/STM32F4xx_HAL_Driver/Src/stm32f4xx_hal_exti.c ****   /* Compute line mask */
 478:Drivers/STM32F4xx_HAL_Driver/Src/stm32f4xx_hal_exti.c ****   linepos = (hexti->Line & EXTI_PIN_MASK);
 1026              		.loc 1 478 3 view .LVU288
 1027              		.loc 1 478 19 is_stmt 0 view .LVU289
 1028 0038 2368     		ldr	r3, [r4]
 1029              		.loc 1 478 11 view .LVU290
 1030 003a 03F01F03 		and	r3, r3, #31
 1031              	.LVL89:
 479:Drivers/STM32F4xx_HAL_Driver/Src/stm32f4xx_hal_exti.c ****   maskline = (1uL << linepos);
 1032              		.loc 1 479 3 is_stmt 1 view .LVU291
 1033              		.loc 1 479 12 is_stmt 0 view .LVU292
 1034 003e 0120     		movs	r0, #1
 1035 0040 00FA03F2 		lsl	r2, r0, r3
 1036              	.LVL90:
 480:Drivers/STM32F4xx_HAL_Driver/Src/stm32f4xx_hal_exti.c **** 
 481:Drivers/STM32F4xx_HAL_Driver/Src/stm32f4xx_hal_exti.c ****   /* return 1 if bit is set else 0 */
 482:Drivers/STM32F4xx_HAL_Driver/Src/stm32f4xx_hal_exti.c ****   regval = ((EXTI->PR & maskline) >> linepos);
 1037              		.loc 1 482 3 is_stmt 1 view .LVU293
 1038              		.loc 1 482 18 is_stmt 0 view .LVU294
 1039 0044 0B49     		ldr	r1, .L97+4
 1040 0046 4869     		ldr	r0, [r1, #20]
 1041              		.loc 1 482 23 view .LVU295
 1042 0048 1040     		ands	r0, r0, r2
 1043              	.LVL91:
 483:Drivers/STM32F4xx_HAL_Driver/Src/stm32f4xx_hal_exti.c ****   return regval;
 1044              		.loc 1 483 3 is_stmt 1 view .LVU296
 484:Drivers/STM32F4xx_HAL_Driver/Src/stm32f4xx_hal_exti.c **** }
 1045              		.loc 1 484 1 is_stmt 0 view .LVU297
 1046 004a D840     		lsrs	r0, r0, r3
 1047              	.LVL92:
ARM GAS  C:\Users\minhp\AppData\Local\Temp\ccWBVzXh.s 			page 29


 1048              		.loc 1 484 1 view .LVU298
 1049 004c 38BD     		pop	{r3, r4, r5, pc}
 1050              	.LVL93:
 1051              	.L90:
 473:Drivers/STM32F4xx_HAL_Driver/Src/stm32f4xx_hal_exti.c ****   assert_param(IS_EXTI_CONFIG_LINE(hexti->Line));
 1052              		.loc 1 473 3 discriminator 6 view .LVU299
 1053 004e 02F01F02 		and	r2, r2, #31
 1054 0052 162A     		cmp	r2, #22
 1055 0054 EAD9     		bls	.L91
 1056 0056 E4E7     		b	.L89
 1057              	.LVL94:
 1058              	.L95:
 474:Drivers/STM32F4xx_HAL_Driver/Src/stm32f4xx_hal_exti.c ****   assert_param(IS_EXTI_PENDING_EDGE(Edge));
 1059              		.loc 1 474 3 discriminator 1 view .LVU300
 1060 0058 4FF4ED71 		mov	r1, #474
 1061 005c 0448     		ldr	r0, .L97
 1062 005e FFF7FEFF 		bl	assert_failed
 1063              	.LVL95:
 1064 0062 E7E7     		b	.L92
 1065              	.L96:
 475:Drivers/STM32F4xx_HAL_Driver/Src/stm32f4xx_hal_exti.c **** 
 1066              		.loc 1 475 3 discriminator 1 view .LVU301
 1067 0064 40F2DB11 		movw	r1, #475
 1068 0068 0148     		ldr	r0, .L97
 1069 006a FFF7FEFF 		bl	assert_failed
 1070              	.LVL96:
 1071 006e E3E7     		b	.L93
 1072              	.L98:
 1073              		.align	2
 1074              	.L97:
 1075 0070 00000000 		.word	.LC0
 1076 0074 003C0140 		.word	1073822720
 1077              		.cfi_endproc
 1078              	.LFE136:
 1080              		.section	.text.HAL_EXTI_ClearPending,"ax",%progbits
 1081              		.align	1
 1082              		.global	HAL_EXTI_ClearPending
 1083              		.syntax unified
 1084              		.thumb
 1085              		.thumb_func
 1087              	HAL_EXTI_ClearPending:
 1088              	.LVL97:
 1089              	.LFB137:
 485:Drivers/STM32F4xx_HAL_Driver/Src/stm32f4xx_hal_exti.c **** 
 486:Drivers/STM32F4xx_HAL_Driver/Src/stm32f4xx_hal_exti.c **** /**
 487:Drivers/STM32F4xx_HAL_Driver/Src/stm32f4xx_hal_exti.c ****   * @brief  Clear interrupt pending bit of a dedicated line.
 488:Drivers/STM32F4xx_HAL_Driver/Src/stm32f4xx_hal_exti.c ****   * @param  hexti Exti handle.
 489:Drivers/STM32F4xx_HAL_Driver/Src/stm32f4xx_hal_exti.c ****   * @param  Edge Specify which pending edge as to be clear.
 490:Drivers/STM32F4xx_HAL_Driver/Src/stm32f4xx_hal_exti.c ****   *         This parameter can be one of the following values:
 491:Drivers/STM32F4xx_HAL_Driver/Src/stm32f4xx_hal_exti.c ****   *           @arg @ref EXTI_TRIGGER_RISING_FALLING
 492:Drivers/STM32F4xx_HAL_Driver/Src/stm32f4xx_hal_exti.c ****   *         This parameter is kept for compatibility with other series.
 493:Drivers/STM32F4xx_HAL_Driver/Src/stm32f4xx_hal_exti.c ****   * @retval None.
 494:Drivers/STM32F4xx_HAL_Driver/Src/stm32f4xx_hal_exti.c ****   */
 495:Drivers/STM32F4xx_HAL_Driver/Src/stm32f4xx_hal_exti.c **** void HAL_EXTI_ClearPending(EXTI_HandleTypeDef *hexti, uint32_t Edge)
 496:Drivers/STM32F4xx_HAL_Driver/Src/stm32f4xx_hal_exti.c **** {
 1090              		.loc 1 496 1 is_stmt 1 view -0
 1091              		.cfi_startproc
ARM GAS  C:\Users\minhp\AppData\Local\Temp\ccWBVzXh.s 			page 30


 1092              		@ args = 0, pretend = 0, frame = 0
 1093              		@ frame_needed = 0, uses_anonymous_args = 0
 1094              		.loc 1 496 1 is_stmt 0 view .LVU303
 1095 0000 38B5     		push	{r3, r4, r5, lr}
 1096              	.LCFI12:
 1097              		.cfi_def_cfa_offset 16
 1098              		.cfi_offset 3, -16
 1099              		.cfi_offset 4, -12
 1100              		.cfi_offset 5, -8
 1101              		.cfi_offset 14, -4
 1102 0002 0446     		mov	r4, r0
 1103 0004 0D46     		mov	r5, r1
 497:Drivers/STM32F4xx_HAL_Driver/Src/stm32f4xx_hal_exti.c ****   uint32_t maskline;
 1104              		.loc 1 497 3 is_stmt 1 view .LVU304
 498:Drivers/STM32F4xx_HAL_Driver/Src/stm32f4xx_hal_exti.c **** 
 499:Drivers/STM32F4xx_HAL_Driver/Src/stm32f4xx_hal_exti.c ****   /* Check parameters */
 500:Drivers/STM32F4xx_HAL_Driver/Src/stm32f4xx_hal_exti.c ****   assert_param(IS_EXTI_LINE(hexti->Line));
 1105              		.loc 1 500 3 view .LVU305
 1106 0006 0268     		ldr	r2, [r0]
 1107 0008 22F0C063 		bic	r3, r2, #100663296
 1108 000c 23F01F03 		bic	r3, r3, #31
 1109 0010 3BB9     		cbnz	r3, .L100
 1110              		.loc 1 500 3 is_stmt 0 discriminator 2 view .LVU306
 1111 0012 02F0C063 		and	r3, r2, #100663296
 1112 0016 B3F1007F 		cmp	r3, #33554432
 1113 001a 15D0     		beq	.L101
 1114              		.loc 1 500 3 discriminator 3 view .LVU307
 1115 001c B3F1C06F 		cmp	r3, #100663296
 1116 0020 12D0     		beq	.L101
 1117              	.L100:
 1118              		.loc 1 500 3 discriminator 7 view .LVU308
 1119 0022 4FF4FA71 		mov	r1, #500
 1120              	.LVL98:
 1121              		.loc 1 500 3 discriminator 7 view .LVU309
 1122 0026 1148     		ldr	r0, .L108
 1123              	.LVL99:
 1124              		.loc 1 500 3 discriminator 7 view .LVU310
 1125 0028 FFF7FEFF 		bl	assert_failed
 1126              	.LVL100:
 1127              	.L102:
 501:Drivers/STM32F4xx_HAL_Driver/Src/stm32f4xx_hal_exti.c ****   assert_param(IS_EXTI_CONFIG_LINE(hexti->Line));
 1128              		.loc 1 501 3 is_stmt 1 view .LVU311
 1129 002c 2368     		ldr	r3, [r4]
 1130 002e 13F0007F 		tst	r3, #33554432
 1131 0032 0ED0     		beq	.L106
 1132              	.L103:
 502:Drivers/STM32F4xx_HAL_Driver/Src/stm32f4xx_hal_exti.c ****   assert_param(IS_EXTI_PENDING_EDGE(Edge));
 1133              		.loc 1 502 3 view .LVU312
 1134 0034 032D     		cmp	r5, #3
 1135 0036 12D1     		bne	.L107
 1136              	.L104:
 503:Drivers/STM32F4xx_HAL_Driver/Src/stm32f4xx_hal_exti.c **** 
 504:Drivers/STM32F4xx_HAL_Driver/Src/stm32f4xx_hal_exti.c ****   /* Compute line mask */
 505:Drivers/STM32F4xx_HAL_Driver/Src/stm32f4xx_hal_exti.c ****   maskline = (1uL << (hexti->Line & EXTI_PIN_MASK));
 1137              		.loc 1 505 3 view .LVU313
 1138              		.loc 1 505 28 is_stmt 0 view .LVU314
 1139 0038 2268     		ldr	r2, [r4]
ARM GAS  C:\Users\minhp\AppData\Local\Temp\ccWBVzXh.s 			page 31


 1140              		.loc 1 505 35 view .LVU315
 1141 003a 02F01F02 		and	r2, r2, #31
 1142              		.loc 1 505 12 view .LVU316
 1143 003e 0123     		movs	r3, #1
 1144 0040 9340     		lsls	r3, r3, r2
 1145              	.LVL101:
 506:Drivers/STM32F4xx_HAL_Driver/Src/stm32f4xx_hal_exti.c **** 
 507:Drivers/STM32F4xx_HAL_Driver/Src/stm32f4xx_hal_exti.c ****   /* Clear Pending bit */
 508:Drivers/STM32F4xx_HAL_Driver/Src/stm32f4xx_hal_exti.c ****   EXTI->PR =  maskline;
 1146              		.loc 1 508 3 is_stmt 1 view .LVU317
 1147              		.loc 1 508 12 is_stmt 0 view .LVU318
 1148 0042 0B4A     		ldr	r2, .L108+4
 1149 0044 5361     		str	r3, [r2, #20]
 509:Drivers/STM32F4xx_HAL_Driver/Src/stm32f4xx_hal_exti.c **** }
 1150              		.loc 1 509 1 view .LVU319
 1151 0046 38BD     		pop	{r3, r4, r5, pc}
 1152              	.LVL102:
 1153              	.L101:
 500:Drivers/STM32F4xx_HAL_Driver/Src/stm32f4xx_hal_exti.c ****   assert_param(IS_EXTI_CONFIG_LINE(hexti->Line));
 1154              		.loc 1 500 3 discriminator 6 view .LVU320
 1155 0048 02F01F02 		and	r2, r2, #31
 1156 004c 162A     		cmp	r2, #22
 1157 004e EDD9     		bls	.L102
 1158 0050 E7E7     		b	.L100
 1159              	.LVL103:
 1160              	.L106:
 501:Drivers/STM32F4xx_HAL_Driver/Src/stm32f4xx_hal_exti.c ****   assert_param(IS_EXTI_PENDING_EDGE(Edge));
 1161              		.loc 1 501 3 discriminator 1 view .LVU321
 1162 0052 40F2F511 		movw	r1, #501
 1163 0056 0548     		ldr	r0, .L108
 1164 0058 FFF7FEFF 		bl	assert_failed
 1165              	.LVL104:
 1166 005c EAE7     		b	.L103
 1167              	.L107:
 502:Drivers/STM32F4xx_HAL_Driver/Src/stm32f4xx_hal_exti.c **** 
 1168              		.loc 1 502 3 discriminator 1 view .LVU322
 1169 005e 4FF4FB71 		mov	r1, #502
 1170 0062 0248     		ldr	r0, .L108
 1171 0064 FFF7FEFF 		bl	assert_failed
 1172              	.LVL105:
 1173 0068 E6E7     		b	.L104
 1174              	.L109:
 1175 006a 00BF     		.align	2
 1176              	.L108:
 1177 006c 00000000 		.word	.LC0
 1178 0070 003C0140 		.word	1073822720
 1179              		.cfi_endproc
 1180              	.LFE137:
 1182              		.section	.text.HAL_EXTI_GenerateSWI,"ax",%progbits
 1183              		.align	1
 1184              		.global	HAL_EXTI_GenerateSWI
 1185              		.syntax unified
 1186              		.thumb
 1187              		.thumb_func
 1189              	HAL_EXTI_GenerateSWI:
 1190              	.LVL106:
 1191              	.LFB138:
ARM GAS  C:\Users\minhp\AppData\Local\Temp\ccWBVzXh.s 			page 32


 510:Drivers/STM32F4xx_HAL_Driver/Src/stm32f4xx_hal_exti.c **** 
 511:Drivers/STM32F4xx_HAL_Driver/Src/stm32f4xx_hal_exti.c **** /**
 512:Drivers/STM32F4xx_HAL_Driver/Src/stm32f4xx_hal_exti.c ****   * @brief  Generate a software interrupt for a dedicated line.
 513:Drivers/STM32F4xx_HAL_Driver/Src/stm32f4xx_hal_exti.c ****   * @param  hexti Exti handle.
 514:Drivers/STM32F4xx_HAL_Driver/Src/stm32f4xx_hal_exti.c ****   * @retval None.
 515:Drivers/STM32F4xx_HAL_Driver/Src/stm32f4xx_hal_exti.c ****   */
 516:Drivers/STM32F4xx_HAL_Driver/Src/stm32f4xx_hal_exti.c **** void HAL_EXTI_GenerateSWI(EXTI_HandleTypeDef *hexti)
 517:Drivers/STM32F4xx_HAL_Driver/Src/stm32f4xx_hal_exti.c **** {
 1192              		.loc 1 517 1 is_stmt 1 view -0
 1193              		.cfi_startproc
 1194              		@ args = 0, pretend = 0, frame = 0
 1195              		@ frame_needed = 0, uses_anonymous_args = 0
 1196              		.loc 1 517 1 is_stmt 0 view .LVU324
 1197 0000 10B5     		push	{r4, lr}
 1198              	.LCFI13:
 1199              		.cfi_def_cfa_offset 8
 1200              		.cfi_offset 4, -8
 1201              		.cfi_offset 14, -4
 1202 0002 0446     		mov	r4, r0
 518:Drivers/STM32F4xx_HAL_Driver/Src/stm32f4xx_hal_exti.c ****   uint32_t maskline;
 1203              		.loc 1 518 3 is_stmt 1 view .LVU325
 519:Drivers/STM32F4xx_HAL_Driver/Src/stm32f4xx_hal_exti.c **** 
 520:Drivers/STM32F4xx_HAL_Driver/Src/stm32f4xx_hal_exti.c ****   /* Check parameters */
 521:Drivers/STM32F4xx_HAL_Driver/Src/stm32f4xx_hal_exti.c ****   assert_param(IS_EXTI_LINE(hexti->Line));
 1204              		.loc 1 521 3 view .LVU326
 1205 0004 0268     		ldr	r2, [r0]
 1206 0006 22F0C063 		bic	r3, r2, #100663296
 1207 000a 23F01F03 		bic	r3, r3, #31
 1208 000e 3BB9     		cbnz	r3, .L111
 1209              		.loc 1 521 3 is_stmt 0 discriminator 2 view .LVU327
 1210 0010 02F0C063 		and	r3, r2, #100663296
 1211 0014 B3F1007F 		cmp	r3, #33554432
 1212 0018 13D0     		beq	.L112
 1213              		.loc 1 521 3 discriminator 3 view .LVU328
 1214 001a B3F1C06F 		cmp	r3, #100663296
 1215 001e 10D0     		beq	.L112
 1216              	.L111:
 1217              		.loc 1 521 3 discriminator 7 view .LVU329
 1218 0020 40F20921 		movw	r1, #521
 1219 0024 0C48     		ldr	r0, .L117
 1220              	.LVL107:
 1221              		.loc 1 521 3 discriminator 7 view .LVU330
 1222 0026 FFF7FEFF 		bl	assert_failed
 1223              	.LVL108:
 1224              	.L113:
 522:Drivers/STM32F4xx_HAL_Driver/Src/stm32f4xx_hal_exti.c ****   assert_param(IS_EXTI_CONFIG_LINE(hexti->Line));
 1225              		.loc 1 522 3 is_stmt 1 view .LVU331
 1226 002a 2368     		ldr	r3, [r4]
 1227 002c 13F0007F 		tst	r3, #33554432
 1228 0030 0CD0     		beq	.L116
 1229              	.L114:
 523:Drivers/STM32F4xx_HAL_Driver/Src/stm32f4xx_hal_exti.c **** 
 524:Drivers/STM32F4xx_HAL_Driver/Src/stm32f4xx_hal_exti.c ****   /* Compute line mask */
 525:Drivers/STM32F4xx_HAL_Driver/Src/stm32f4xx_hal_exti.c ****   maskline = (1uL << (hexti->Line & EXTI_PIN_MASK));
 1230              		.loc 1 525 3 view .LVU332
 1231              		.loc 1 525 28 is_stmt 0 view .LVU333
 1232 0032 2268     		ldr	r2, [r4]
ARM GAS  C:\Users\minhp\AppData\Local\Temp\ccWBVzXh.s 			page 33


 1233              		.loc 1 525 35 view .LVU334
 1234 0034 02F01F02 		and	r2, r2, #31
 1235              		.loc 1 525 12 view .LVU335
 1236 0038 0123     		movs	r3, #1
 1237 003a 9340     		lsls	r3, r3, r2
 1238              	.LVL109:
 526:Drivers/STM32F4xx_HAL_Driver/Src/stm32f4xx_hal_exti.c **** 
 527:Drivers/STM32F4xx_HAL_Driver/Src/stm32f4xx_hal_exti.c ****   /* Generate Software interrupt */
 528:Drivers/STM32F4xx_HAL_Driver/Src/stm32f4xx_hal_exti.c ****   EXTI->SWIER = maskline;
 1239              		.loc 1 528 3 is_stmt 1 view .LVU336
 1240              		.loc 1 528 15 is_stmt 0 view .LVU337
 1241 003c 074A     		ldr	r2, .L117+4
 1242 003e 1361     		str	r3, [r2, #16]
 529:Drivers/STM32F4xx_HAL_Driver/Src/stm32f4xx_hal_exti.c **** }
 1243              		.loc 1 529 1 view .LVU338
 1244 0040 10BD     		pop	{r4, pc}
 1245              	.LVL110:
 1246              	.L112:
 521:Drivers/STM32F4xx_HAL_Driver/Src/stm32f4xx_hal_exti.c ****   assert_param(IS_EXTI_CONFIG_LINE(hexti->Line));
 1247              		.loc 1 521 3 discriminator 6 view .LVU339
 1248 0042 02F01F02 		and	r2, r2, #31
 1249 0046 162A     		cmp	r2, #22
 1250 0048 EFD9     		bls	.L113
 1251 004a E9E7     		b	.L111
 1252              	.LVL111:
 1253              	.L116:
 522:Drivers/STM32F4xx_HAL_Driver/Src/stm32f4xx_hal_exti.c **** 
 1254              		.loc 1 522 3 discriminator 1 view .LVU340
 1255 004c 40F20A21 		movw	r1, #522
 1256 0050 0148     		ldr	r0, .L117
 1257 0052 FFF7FEFF 		bl	assert_failed
 1258              	.LVL112:
 1259 0056 ECE7     		b	.L114
 1260              	.L118:
 1261              		.align	2
 1262              	.L117:
 1263 0058 00000000 		.word	.LC0
 1264 005c 003C0140 		.word	1073822720
 1265              		.cfi_endproc
 1266              	.LFE138:
 1268              		.text
 1269              	.Letext0:
 1270              		.file 2 "c:\\program files (x86)\\gnu arm embedded toolchain\\10 2021.10\\arm-none-eabi\\include\\
 1271              		.file 3 "c:\\program files (x86)\\gnu arm embedded toolchain\\10 2021.10\\arm-none-eabi\\include\\
 1272              		.file 4 "Drivers/CMSIS/Device/ST/STM32F4xx/Include/stm32f411xe.h"
 1273              		.file 5 "Drivers/STM32F4xx_HAL_Driver/Inc/stm32f4xx_hal_def.h"
 1274              		.file 6 "Drivers/STM32F4xx_HAL_Driver/Inc/stm32f4xx_hal_exti.h"
 1275              		.file 7 "Core/Inc/stm32f4xx_hal_conf.h"
ARM GAS  C:\Users\minhp\AppData\Local\Temp\ccWBVzXh.s 			page 34

